ARM GAS  C:\Users\HARTO_~1\AppData\Local\Temp\ccO3OpW0.s 			page 1


   1              		.cpu cortex-m3
   2              		.eabi_attribute 20, 1
   3              		.eabi_attribute 21, 1
   4              		.eabi_attribute 23, 3
   5              		.eabi_attribute 24, 1
   6              		.eabi_attribute 25, 1
   7              		.eabi_attribute 26, 1
   8              		.eabi_attribute 30, 1
   9              		.eabi_attribute 34, 1
  10              		.eabi_attribute 18, 4
  11              		.file	"stm32f1xx_hal_dma.c"
  12              		.text
  13              	.Ltext0:
  14              		.cfi_sections	.debug_frame
  15              		.section	.text.DMA_SetConfig,"ax",%progbits
  16              		.align	1
  17              		.arch armv7-m
  18              		.syntax unified
  19              		.thumb
  20              		.thumb_func
  21              		.fpu softvfp
  23              	DMA_SetConfig:
  24              	.LVL0:
  25              	.LFB77:
  26              		.file 1 "Drivers/STM32F1xx_HAL_Driver/Src/stm32f1xx_hal_dma.c"
   1:Drivers/STM32F1xx_HAL_Driver/Src/stm32f1xx_hal_dma.c **** /**
   2:Drivers/STM32F1xx_HAL_Driver/Src/stm32f1xx_hal_dma.c ****   ******************************************************************************
   3:Drivers/STM32F1xx_HAL_Driver/Src/stm32f1xx_hal_dma.c ****   * @file    stm32f1xx_hal_dma.c
   4:Drivers/STM32F1xx_HAL_Driver/Src/stm32f1xx_hal_dma.c ****   * @author  MCD Application Team
   5:Drivers/STM32F1xx_HAL_Driver/Src/stm32f1xx_hal_dma.c ****   * @brief   DMA HAL module driver.
   6:Drivers/STM32F1xx_HAL_Driver/Src/stm32f1xx_hal_dma.c ****   *         This file provides firmware functions to manage the following
   7:Drivers/STM32F1xx_HAL_Driver/Src/stm32f1xx_hal_dma.c ****   *         functionalities of the Direct Memory Access (DMA) peripheral:
   8:Drivers/STM32F1xx_HAL_Driver/Src/stm32f1xx_hal_dma.c ****   *           + Initialization and de-initialization functions
   9:Drivers/STM32F1xx_HAL_Driver/Src/stm32f1xx_hal_dma.c ****   *           + IO operation functions
  10:Drivers/STM32F1xx_HAL_Driver/Src/stm32f1xx_hal_dma.c ****   *           + Peripheral State and errors functions
  11:Drivers/STM32F1xx_HAL_Driver/Src/stm32f1xx_hal_dma.c ****   @verbatim
  12:Drivers/STM32F1xx_HAL_Driver/Src/stm32f1xx_hal_dma.c ****   ==============================================================================
  13:Drivers/STM32F1xx_HAL_Driver/Src/stm32f1xx_hal_dma.c ****                         ##### How to use this driver #####
  14:Drivers/STM32F1xx_HAL_Driver/Src/stm32f1xx_hal_dma.c ****   ==============================================================================
  15:Drivers/STM32F1xx_HAL_Driver/Src/stm32f1xx_hal_dma.c ****   [..]
  16:Drivers/STM32F1xx_HAL_Driver/Src/stm32f1xx_hal_dma.c ****    (#) Enable and configure the peripheral to be connected to the DMA Channel
  17:Drivers/STM32F1xx_HAL_Driver/Src/stm32f1xx_hal_dma.c ****        (except for internal SRAM / FLASH memories: no initialization is 
  18:Drivers/STM32F1xx_HAL_Driver/Src/stm32f1xx_hal_dma.c ****        necessary). Please refer to the Reference manual for connection between peripherals
  19:Drivers/STM32F1xx_HAL_Driver/Src/stm32f1xx_hal_dma.c ****        and DMA requests.
  20:Drivers/STM32F1xx_HAL_Driver/Src/stm32f1xx_hal_dma.c **** 
  21:Drivers/STM32F1xx_HAL_Driver/Src/stm32f1xx_hal_dma.c ****    (#) For a given Channel, program the required configuration through the following parameters:
  22:Drivers/STM32F1xx_HAL_Driver/Src/stm32f1xx_hal_dma.c ****        Channel request, Transfer Direction, Source and Destination data formats,
  23:Drivers/STM32F1xx_HAL_Driver/Src/stm32f1xx_hal_dma.c ****        Circular or Normal mode, Channel Priority level, Source and Destination Increment mode
  24:Drivers/STM32F1xx_HAL_Driver/Src/stm32f1xx_hal_dma.c ****        using HAL_DMA_Init() function.
  25:Drivers/STM32F1xx_HAL_Driver/Src/stm32f1xx_hal_dma.c **** 
  26:Drivers/STM32F1xx_HAL_Driver/Src/stm32f1xx_hal_dma.c ****    (#) Use HAL_DMA_GetState() function to return the DMA state and HAL_DMA_GetError() in case of er
  27:Drivers/STM32F1xx_HAL_Driver/Src/stm32f1xx_hal_dma.c ****        detection.
  28:Drivers/STM32F1xx_HAL_Driver/Src/stm32f1xx_hal_dma.c ****                     
  29:Drivers/STM32F1xx_HAL_Driver/Src/stm32f1xx_hal_dma.c ****    (#) Use HAL_DMA_Abort() function to abort the current transfer
  30:Drivers/STM32F1xx_HAL_Driver/Src/stm32f1xx_hal_dma.c ****                    
  31:Drivers/STM32F1xx_HAL_Driver/Src/stm32f1xx_hal_dma.c ****      -@-   In Memory-to-Memory transfer mode, Circular mode is not allowed.
  32:Drivers/STM32F1xx_HAL_Driver/Src/stm32f1xx_hal_dma.c ****      *** Polling mode IO operation ***
ARM GAS  C:\Users\HARTO_~1\AppData\Local\Temp\ccO3OpW0.s 			page 2


  33:Drivers/STM32F1xx_HAL_Driver/Src/stm32f1xx_hal_dma.c ****      =================================
  34:Drivers/STM32F1xx_HAL_Driver/Src/stm32f1xx_hal_dma.c ****     [..]
  35:Drivers/STM32F1xx_HAL_Driver/Src/stm32f1xx_hal_dma.c ****           (+) Use HAL_DMA_Start() to start DMA transfer after the configuration of Source
  36:Drivers/STM32F1xx_HAL_Driver/Src/stm32f1xx_hal_dma.c ****               address and destination address and the Length of data to be transferred
  37:Drivers/STM32F1xx_HAL_Driver/Src/stm32f1xx_hal_dma.c ****           (+) Use HAL_DMA_PollForTransfer() to poll for the end of current transfer, in this
  38:Drivers/STM32F1xx_HAL_Driver/Src/stm32f1xx_hal_dma.c ****               case a fixed Timeout can be configured by User depending from his application.
  39:Drivers/STM32F1xx_HAL_Driver/Src/stm32f1xx_hal_dma.c **** 
  40:Drivers/STM32F1xx_HAL_Driver/Src/stm32f1xx_hal_dma.c ****      *** Interrupt mode IO operation ***
  41:Drivers/STM32F1xx_HAL_Driver/Src/stm32f1xx_hal_dma.c ****      ===================================
  42:Drivers/STM32F1xx_HAL_Driver/Src/stm32f1xx_hal_dma.c ****     [..]
  43:Drivers/STM32F1xx_HAL_Driver/Src/stm32f1xx_hal_dma.c ****           (+) Configure the DMA interrupt priority using HAL_NVIC_SetPriority()
  44:Drivers/STM32F1xx_HAL_Driver/Src/stm32f1xx_hal_dma.c ****           (+) Enable the DMA IRQ handler using HAL_NVIC_EnableIRQ()
  45:Drivers/STM32F1xx_HAL_Driver/Src/stm32f1xx_hal_dma.c ****           (+) Use HAL_DMA_Start_IT() to start DMA transfer after the configuration of
  46:Drivers/STM32F1xx_HAL_Driver/Src/stm32f1xx_hal_dma.c ****               Source address and destination address and the Length of data to be transferred.
  47:Drivers/STM32F1xx_HAL_Driver/Src/stm32f1xx_hal_dma.c ****               In this case the DMA interrupt is configured
  48:Drivers/STM32F1xx_HAL_Driver/Src/stm32f1xx_hal_dma.c ****           (+) Use HAL_DMA_IRQHandler() called under DMA_IRQHandler() Interrupt subroutine
  49:Drivers/STM32F1xx_HAL_Driver/Src/stm32f1xx_hal_dma.c ****           (+) At the end of data transfer HAL_DMA_IRQHandler() function is executed and user can
  50:Drivers/STM32F1xx_HAL_Driver/Src/stm32f1xx_hal_dma.c ****               add his own function by customization of function pointer XferCpltCallback and
  51:Drivers/STM32F1xx_HAL_Driver/Src/stm32f1xx_hal_dma.c ****               XferErrorCallback (i.e. a member of DMA handle structure).
  52:Drivers/STM32F1xx_HAL_Driver/Src/stm32f1xx_hal_dma.c **** 
  53:Drivers/STM32F1xx_HAL_Driver/Src/stm32f1xx_hal_dma.c ****      *** DMA HAL driver macros list ***
  54:Drivers/STM32F1xx_HAL_Driver/Src/stm32f1xx_hal_dma.c ****      ============================================= 
  55:Drivers/STM32F1xx_HAL_Driver/Src/stm32f1xx_hal_dma.c ****       [..]
  56:Drivers/STM32F1xx_HAL_Driver/Src/stm32f1xx_hal_dma.c ****        Below the list of most used macros in DMA HAL driver.
  57:Drivers/STM32F1xx_HAL_Driver/Src/stm32f1xx_hal_dma.c **** 
  58:Drivers/STM32F1xx_HAL_Driver/Src/stm32f1xx_hal_dma.c ****        (+) __HAL_DMA_ENABLE: Enable the specified DMA Channel.
  59:Drivers/STM32F1xx_HAL_Driver/Src/stm32f1xx_hal_dma.c ****        (+) __HAL_DMA_DISABLE: Disable the specified DMA Channel.
  60:Drivers/STM32F1xx_HAL_Driver/Src/stm32f1xx_hal_dma.c ****        (+) __HAL_DMA_GET_FLAG: Get the DMA Channel pending flags.
  61:Drivers/STM32F1xx_HAL_Driver/Src/stm32f1xx_hal_dma.c ****        (+) __HAL_DMA_CLEAR_FLAG: Clear the DMA Channel pending flags.
  62:Drivers/STM32F1xx_HAL_Driver/Src/stm32f1xx_hal_dma.c ****        (+) __HAL_DMA_ENABLE_IT: Enable the specified DMA Channel interrupts.
  63:Drivers/STM32F1xx_HAL_Driver/Src/stm32f1xx_hal_dma.c ****        (+) __HAL_DMA_DISABLE_IT: Disable the specified DMA Channel interrupts.
  64:Drivers/STM32F1xx_HAL_Driver/Src/stm32f1xx_hal_dma.c ****        (+) __HAL_DMA_GET_IT_SOURCE: Check whether the specified DMA Channel interrupt has occurred 
  65:Drivers/STM32F1xx_HAL_Driver/Src/stm32f1xx_hal_dma.c **** 
  66:Drivers/STM32F1xx_HAL_Driver/Src/stm32f1xx_hal_dma.c ****      [..] 
  67:Drivers/STM32F1xx_HAL_Driver/Src/stm32f1xx_hal_dma.c ****       (@) You can refer to the DMA HAL driver header file for more useful macros  
  68:Drivers/STM32F1xx_HAL_Driver/Src/stm32f1xx_hal_dma.c **** 
  69:Drivers/STM32F1xx_HAL_Driver/Src/stm32f1xx_hal_dma.c ****   @endverbatim
  70:Drivers/STM32F1xx_HAL_Driver/Src/stm32f1xx_hal_dma.c ****   ******************************************************************************
  71:Drivers/STM32F1xx_HAL_Driver/Src/stm32f1xx_hal_dma.c ****   * @attention
  72:Drivers/STM32F1xx_HAL_Driver/Src/stm32f1xx_hal_dma.c ****   *
  73:Drivers/STM32F1xx_HAL_Driver/Src/stm32f1xx_hal_dma.c ****   * <h2><center>&copy; Copyright (c) 2016 STMicroelectronics.
  74:Drivers/STM32F1xx_HAL_Driver/Src/stm32f1xx_hal_dma.c ****   * All rights reserved.</center></h2>
  75:Drivers/STM32F1xx_HAL_Driver/Src/stm32f1xx_hal_dma.c ****   *
  76:Drivers/STM32F1xx_HAL_Driver/Src/stm32f1xx_hal_dma.c ****   * This software component is licensed by ST under BSD 3-Clause license,
  77:Drivers/STM32F1xx_HAL_Driver/Src/stm32f1xx_hal_dma.c ****   * the "License"; You may not use this file except in compliance with the
  78:Drivers/STM32F1xx_HAL_Driver/Src/stm32f1xx_hal_dma.c ****   * License. You may obtain a copy of the License at:
  79:Drivers/STM32F1xx_HAL_Driver/Src/stm32f1xx_hal_dma.c ****   *                        opensource.org/licenses/BSD-3-Clause
  80:Drivers/STM32F1xx_HAL_Driver/Src/stm32f1xx_hal_dma.c ****   *
  81:Drivers/STM32F1xx_HAL_Driver/Src/stm32f1xx_hal_dma.c ****   ******************************************************************************
  82:Drivers/STM32F1xx_HAL_Driver/Src/stm32f1xx_hal_dma.c ****   */
  83:Drivers/STM32F1xx_HAL_Driver/Src/stm32f1xx_hal_dma.c **** 
  84:Drivers/STM32F1xx_HAL_Driver/Src/stm32f1xx_hal_dma.c **** /* Includes ------------------------------------------------------------------*/
  85:Drivers/STM32F1xx_HAL_Driver/Src/stm32f1xx_hal_dma.c **** #include "stm32f1xx_hal.h"
  86:Drivers/STM32F1xx_HAL_Driver/Src/stm32f1xx_hal_dma.c **** 
  87:Drivers/STM32F1xx_HAL_Driver/Src/stm32f1xx_hal_dma.c **** /** @addtogroup STM32F1xx_HAL_Driver
  88:Drivers/STM32F1xx_HAL_Driver/Src/stm32f1xx_hal_dma.c ****   * @{
  89:Drivers/STM32F1xx_HAL_Driver/Src/stm32f1xx_hal_dma.c ****   */
ARM GAS  C:\Users\HARTO_~1\AppData\Local\Temp\ccO3OpW0.s 			page 3


  90:Drivers/STM32F1xx_HAL_Driver/Src/stm32f1xx_hal_dma.c **** 
  91:Drivers/STM32F1xx_HAL_Driver/Src/stm32f1xx_hal_dma.c **** /** @defgroup DMA DMA
  92:Drivers/STM32F1xx_HAL_Driver/Src/stm32f1xx_hal_dma.c ****   * @brief DMA HAL module driver
  93:Drivers/STM32F1xx_HAL_Driver/Src/stm32f1xx_hal_dma.c ****   * @{
  94:Drivers/STM32F1xx_HAL_Driver/Src/stm32f1xx_hal_dma.c ****   */
  95:Drivers/STM32F1xx_HAL_Driver/Src/stm32f1xx_hal_dma.c **** 
  96:Drivers/STM32F1xx_HAL_Driver/Src/stm32f1xx_hal_dma.c **** #ifdef HAL_DMA_MODULE_ENABLED
  97:Drivers/STM32F1xx_HAL_Driver/Src/stm32f1xx_hal_dma.c **** 
  98:Drivers/STM32F1xx_HAL_Driver/Src/stm32f1xx_hal_dma.c **** /* Private typedef -----------------------------------------------------------*/
  99:Drivers/STM32F1xx_HAL_Driver/Src/stm32f1xx_hal_dma.c **** /* Private define ------------------------------------------------------------*/
 100:Drivers/STM32F1xx_HAL_Driver/Src/stm32f1xx_hal_dma.c **** /* Private macro -------------------------------------------------------------*/
 101:Drivers/STM32F1xx_HAL_Driver/Src/stm32f1xx_hal_dma.c **** /* Private variables ---------------------------------------------------------*/
 102:Drivers/STM32F1xx_HAL_Driver/Src/stm32f1xx_hal_dma.c **** /* Private function prototypes -----------------------------------------------*/
 103:Drivers/STM32F1xx_HAL_Driver/Src/stm32f1xx_hal_dma.c **** /** @defgroup DMA_Private_Functions DMA Private Functions
 104:Drivers/STM32F1xx_HAL_Driver/Src/stm32f1xx_hal_dma.c ****   * @{
 105:Drivers/STM32F1xx_HAL_Driver/Src/stm32f1xx_hal_dma.c ****   */
 106:Drivers/STM32F1xx_HAL_Driver/Src/stm32f1xx_hal_dma.c **** static void DMA_SetConfig(DMA_HandleTypeDef *hdma, uint32_t SrcAddress, uint32_t DstAddress, uint32
 107:Drivers/STM32F1xx_HAL_Driver/Src/stm32f1xx_hal_dma.c **** /**
 108:Drivers/STM32F1xx_HAL_Driver/Src/stm32f1xx_hal_dma.c ****   * @}
 109:Drivers/STM32F1xx_HAL_Driver/Src/stm32f1xx_hal_dma.c ****   */
 110:Drivers/STM32F1xx_HAL_Driver/Src/stm32f1xx_hal_dma.c **** 
 111:Drivers/STM32F1xx_HAL_Driver/Src/stm32f1xx_hal_dma.c **** /* Exported functions ---------------------------------------------------------*/
 112:Drivers/STM32F1xx_HAL_Driver/Src/stm32f1xx_hal_dma.c **** 
 113:Drivers/STM32F1xx_HAL_Driver/Src/stm32f1xx_hal_dma.c **** /** @defgroup DMA_Exported_Functions DMA Exported Functions
 114:Drivers/STM32F1xx_HAL_Driver/Src/stm32f1xx_hal_dma.c ****   * @{
 115:Drivers/STM32F1xx_HAL_Driver/Src/stm32f1xx_hal_dma.c ****   */
 116:Drivers/STM32F1xx_HAL_Driver/Src/stm32f1xx_hal_dma.c **** 
 117:Drivers/STM32F1xx_HAL_Driver/Src/stm32f1xx_hal_dma.c **** /** @defgroup DMA_Exported_Functions_Group1 Initialization and de-initialization functions
 118:Drivers/STM32F1xx_HAL_Driver/Src/stm32f1xx_hal_dma.c ****   *  @brief   Initialization and de-initialization functions 
 119:Drivers/STM32F1xx_HAL_Driver/Src/stm32f1xx_hal_dma.c ****   *
 120:Drivers/STM32F1xx_HAL_Driver/Src/stm32f1xx_hal_dma.c **** @verbatim
 121:Drivers/STM32F1xx_HAL_Driver/Src/stm32f1xx_hal_dma.c ****  ===============================================================================
 122:Drivers/STM32F1xx_HAL_Driver/Src/stm32f1xx_hal_dma.c ****              ##### Initialization and de-initialization functions  #####
 123:Drivers/STM32F1xx_HAL_Driver/Src/stm32f1xx_hal_dma.c ****  ===============================================================================
 124:Drivers/STM32F1xx_HAL_Driver/Src/stm32f1xx_hal_dma.c ****     [..]
 125:Drivers/STM32F1xx_HAL_Driver/Src/stm32f1xx_hal_dma.c ****     This section provides functions allowing to initialize the DMA Channel source
 126:Drivers/STM32F1xx_HAL_Driver/Src/stm32f1xx_hal_dma.c ****     and destination addresses, incrementation and data sizes, transfer direction, 
 127:Drivers/STM32F1xx_HAL_Driver/Src/stm32f1xx_hal_dma.c ****     circular/normal mode selection, memory-to-memory mode selection and Channel priority value.
 128:Drivers/STM32F1xx_HAL_Driver/Src/stm32f1xx_hal_dma.c ****     [..]
 129:Drivers/STM32F1xx_HAL_Driver/Src/stm32f1xx_hal_dma.c ****     The HAL_DMA_Init() function follows the DMA configuration procedures as described in
 130:Drivers/STM32F1xx_HAL_Driver/Src/stm32f1xx_hal_dma.c ****     reference manual.  
 131:Drivers/STM32F1xx_HAL_Driver/Src/stm32f1xx_hal_dma.c **** 
 132:Drivers/STM32F1xx_HAL_Driver/Src/stm32f1xx_hal_dma.c **** @endverbatim
 133:Drivers/STM32F1xx_HAL_Driver/Src/stm32f1xx_hal_dma.c ****   * @{
 134:Drivers/STM32F1xx_HAL_Driver/Src/stm32f1xx_hal_dma.c ****   */
 135:Drivers/STM32F1xx_HAL_Driver/Src/stm32f1xx_hal_dma.c **** 
 136:Drivers/STM32F1xx_HAL_Driver/Src/stm32f1xx_hal_dma.c **** /**
 137:Drivers/STM32F1xx_HAL_Driver/Src/stm32f1xx_hal_dma.c ****   * @brief  Initialize the DMA according to the specified
 138:Drivers/STM32F1xx_HAL_Driver/Src/stm32f1xx_hal_dma.c ****   *         parameters in the DMA_InitTypeDef and initialize the associated handle.
 139:Drivers/STM32F1xx_HAL_Driver/Src/stm32f1xx_hal_dma.c ****   * @param  hdma: Pointer to a DMA_HandleTypeDef structure that contains
 140:Drivers/STM32F1xx_HAL_Driver/Src/stm32f1xx_hal_dma.c ****   *               the configuration information for the specified DMA Channel.
 141:Drivers/STM32F1xx_HAL_Driver/Src/stm32f1xx_hal_dma.c ****   * @retval HAL status
 142:Drivers/STM32F1xx_HAL_Driver/Src/stm32f1xx_hal_dma.c ****   */
 143:Drivers/STM32F1xx_HAL_Driver/Src/stm32f1xx_hal_dma.c **** HAL_StatusTypeDef HAL_DMA_Init(DMA_HandleTypeDef *hdma)
 144:Drivers/STM32F1xx_HAL_Driver/Src/stm32f1xx_hal_dma.c **** {
 145:Drivers/STM32F1xx_HAL_Driver/Src/stm32f1xx_hal_dma.c ****   uint32_t tmp = 0U;
 146:Drivers/STM32F1xx_HAL_Driver/Src/stm32f1xx_hal_dma.c **** 
ARM GAS  C:\Users\HARTO_~1\AppData\Local\Temp\ccO3OpW0.s 			page 4


 147:Drivers/STM32F1xx_HAL_Driver/Src/stm32f1xx_hal_dma.c ****   /* Check the DMA handle allocation */
 148:Drivers/STM32F1xx_HAL_Driver/Src/stm32f1xx_hal_dma.c ****   if(hdma == NULL)
 149:Drivers/STM32F1xx_HAL_Driver/Src/stm32f1xx_hal_dma.c ****   {
 150:Drivers/STM32F1xx_HAL_Driver/Src/stm32f1xx_hal_dma.c ****     return HAL_ERROR;
 151:Drivers/STM32F1xx_HAL_Driver/Src/stm32f1xx_hal_dma.c ****   }
 152:Drivers/STM32F1xx_HAL_Driver/Src/stm32f1xx_hal_dma.c **** 
 153:Drivers/STM32F1xx_HAL_Driver/Src/stm32f1xx_hal_dma.c ****   /* Check the parameters */
 154:Drivers/STM32F1xx_HAL_Driver/Src/stm32f1xx_hal_dma.c ****   assert_param(IS_DMA_ALL_INSTANCE(hdma->Instance));
 155:Drivers/STM32F1xx_HAL_Driver/Src/stm32f1xx_hal_dma.c ****   assert_param(IS_DMA_DIRECTION(hdma->Init.Direction));
 156:Drivers/STM32F1xx_HAL_Driver/Src/stm32f1xx_hal_dma.c ****   assert_param(IS_DMA_PERIPHERAL_INC_STATE(hdma->Init.PeriphInc));
 157:Drivers/STM32F1xx_HAL_Driver/Src/stm32f1xx_hal_dma.c ****   assert_param(IS_DMA_MEMORY_INC_STATE(hdma->Init.MemInc));
 158:Drivers/STM32F1xx_HAL_Driver/Src/stm32f1xx_hal_dma.c ****   assert_param(IS_DMA_PERIPHERAL_DATA_SIZE(hdma->Init.PeriphDataAlignment));
 159:Drivers/STM32F1xx_HAL_Driver/Src/stm32f1xx_hal_dma.c ****   assert_param(IS_DMA_MEMORY_DATA_SIZE(hdma->Init.MemDataAlignment));
 160:Drivers/STM32F1xx_HAL_Driver/Src/stm32f1xx_hal_dma.c ****   assert_param(IS_DMA_MODE(hdma->Init.Mode));
 161:Drivers/STM32F1xx_HAL_Driver/Src/stm32f1xx_hal_dma.c ****   assert_param(IS_DMA_PRIORITY(hdma->Init.Priority));
 162:Drivers/STM32F1xx_HAL_Driver/Src/stm32f1xx_hal_dma.c **** 
 163:Drivers/STM32F1xx_HAL_Driver/Src/stm32f1xx_hal_dma.c **** #if defined (DMA2)
 164:Drivers/STM32F1xx_HAL_Driver/Src/stm32f1xx_hal_dma.c ****   /* calculation of the channel index */
 165:Drivers/STM32F1xx_HAL_Driver/Src/stm32f1xx_hal_dma.c ****   if ((uint32_t)(hdma->Instance) < (uint32_t)(DMA2_Channel1))
 166:Drivers/STM32F1xx_HAL_Driver/Src/stm32f1xx_hal_dma.c ****   {
 167:Drivers/STM32F1xx_HAL_Driver/Src/stm32f1xx_hal_dma.c ****     /* DMA1 */
 168:Drivers/STM32F1xx_HAL_Driver/Src/stm32f1xx_hal_dma.c ****     hdma->ChannelIndex = (((uint32_t)hdma->Instance - (uint32_t)DMA1_Channel1) / ((uint32_t)DMA1_Ch
 169:Drivers/STM32F1xx_HAL_Driver/Src/stm32f1xx_hal_dma.c ****     hdma->DmaBaseAddress = DMA1;
 170:Drivers/STM32F1xx_HAL_Driver/Src/stm32f1xx_hal_dma.c ****   }
 171:Drivers/STM32F1xx_HAL_Driver/Src/stm32f1xx_hal_dma.c ****   else 
 172:Drivers/STM32F1xx_HAL_Driver/Src/stm32f1xx_hal_dma.c ****   {
 173:Drivers/STM32F1xx_HAL_Driver/Src/stm32f1xx_hal_dma.c ****     /* DMA2 */
 174:Drivers/STM32F1xx_HAL_Driver/Src/stm32f1xx_hal_dma.c ****     hdma->ChannelIndex = (((uint32_t)hdma->Instance - (uint32_t)DMA2_Channel1) / ((uint32_t)DMA2_Ch
 175:Drivers/STM32F1xx_HAL_Driver/Src/stm32f1xx_hal_dma.c ****     hdma->DmaBaseAddress = DMA2;
 176:Drivers/STM32F1xx_HAL_Driver/Src/stm32f1xx_hal_dma.c ****   }
 177:Drivers/STM32F1xx_HAL_Driver/Src/stm32f1xx_hal_dma.c **** #else
 178:Drivers/STM32F1xx_HAL_Driver/Src/stm32f1xx_hal_dma.c ****   /* DMA1 */
 179:Drivers/STM32F1xx_HAL_Driver/Src/stm32f1xx_hal_dma.c ****   hdma->ChannelIndex = (((uint32_t)hdma->Instance - (uint32_t)DMA1_Channel1) / ((uint32_t)DMA1_Chan
 180:Drivers/STM32F1xx_HAL_Driver/Src/stm32f1xx_hal_dma.c ****   hdma->DmaBaseAddress = DMA1;
 181:Drivers/STM32F1xx_HAL_Driver/Src/stm32f1xx_hal_dma.c **** #endif /* DMA2 */
 182:Drivers/STM32F1xx_HAL_Driver/Src/stm32f1xx_hal_dma.c **** 
 183:Drivers/STM32F1xx_HAL_Driver/Src/stm32f1xx_hal_dma.c ****   /* Change DMA peripheral state */
 184:Drivers/STM32F1xx_HAL_Driver/Src/stm32f1xx_hal_dma.c ****   hdma->State = HAL_DMA_STATE_BUSY;
 185:Drivers/STM32F1xx_HAL_Driver/Src/stm32f1xx_hal_dma.c **** 
 186:Drivers/STM32F1xx_HAL_Driver/Src/stm32f1xx_hal_dma.c ****   /* Get the CR register value */
 187:Drivers/STM32F1xx_HAL_Driver/Src/stm32f1xx_hal_dma.c ****   tmp = hdma->Instance->CCR;
 188:Drivers/STM32F1xx_HAL_Driver/Src/stm32f1xx_hal_dma.c **** 
 189:Drivers/STM32F1xx_HAL_Driver/Src/stm32f1xx_hal_dma.c ****   /* Clear PL, MSIZE, PSIZE, MINC, PINC, CIRC and DIR bits */
 190:Drivers/STM32F1xx_HAL_Driver/Src/stm32f1xx_hal_dma.c ****   tmp &= ((uint32_t)~(DMA_CCR_PL    | DMA_CCR_MSIZE  | DMA_CCR_PSIZE  | \
 191:Drivers/STM32F1xx_HAL_Driver/Src/stm32f1xx_hal_dma.c ****                       DMA_CCR_MINC  | DMA_CCR_PINC   | DMA_CCR_CIRC   | \
 192:Drivers/STM32F1xx_HAL_Driver/Src/stm32f1xx_hal_dma.c ****                       DMA_CCR_DIR));
 193:Drivers/STM32F1xx_HAL_Driver/Src/stm32f1xx_hal_dma.c **** 
 194:Drivers/STM32F1xx_HAL_Driver/Src/stm32f1xx_hal_dma.c ****   /* Prepare the DMA Channel configuration */
 195:Drivers/STM32F1xx_HAL_Driver/Src/stm32f1xx_hal_dma.c ****   tmp |=  hdma->Init.Direction        |
 196:Drivers/STM32F1xx_HAL_Driver/Src/stm32f1xx_hal_dma.c ****           hdma->Init.PeriphInc           | hdma->Init.MemInc           |
 197:Drivers/STM32F1xx_HAL_Driver/Src/stm32f1xx_hal_dma.c ****           hdma->Init.PeriphDataAlignment | hdma->Init.MemDataAlignment |
 198:Drivers/STM32F1xx_HAL_Driver/Src/stm32f1xx_hal_dma.c ****           hdma->Init.Mode                | hdma->Init.Priority;
 199:Drivers/STM32F1xx_HAL_Driver/Src/stm32f1xx_hal_dma.c **** 
 200:Drivers/STM32F1xx_HAL_Driver/Src/stm32f1xx_hal_dma.c ****   /* Write to DMA Channel CR register */
 201:Drivers/STM32F1xx_HAL_Driver/Src/stm32f1xx_hal_dma.c ****   hdma->Instance->CCR = tmp;
 202:Drivers/STM32F1xx_HAL_Driver/Src/stm32f1xx_hal_dma.c **** 
 203:Drivers/STM32F1xx_HAL_Driver/Src/stm32f1xx_hal_dma.c ****   /* Initialise the error code */
ARM GAS  C:\Users\HARTO_~1\AppData\Local\Temp\ccO3OpW0.s 			page 5


 204:Drivers/STM32F1xx_HAL_Driver/Src/stm32f1xx_hal_dma.c ****   hdma->ErrorCode = HAL_DMA_ERROR_NONE;
 205:Drivers/STM32F1xx_HAL_Driver/Src/stm32f1xx_hal_dma.c **** 
 206:Drivers/STM32F1xx_HAL_Driver/Src/stm32f1xx_hal_dma.c ****   /* Initialize the DMA state*/
 207:Drivers/STM32F1xx_HAL_Driver/Src/stm32f1xx_hal_dma.c ****   hdma->State = HAL_DMA_STATE_READY;
 208:Drivers/STM32F1xx_HAL_Driver/Src/stm32f1xx_hal_dma.c ****   /* Allocate lock resource and initialize it */
 209:Drivers/STM32F1xx_HAL_Driver/Src/stm32f1xx_hal_dma.c ****   hdma->Lock = HAL_UNLOCKED;
 210:Drivers/STM32F1xx_HAL_Driver/Src/stm32f1xx_hal_dma.c **** 
 211:Drivers/STM32F1xx_HAL_Driver/Src/stm32f1xx_hal_dma.c ****   return HAL_OK;
 212:Drivers/STM32F1xx_HAL_Driver/Src/stm32f1xx_hal_dma.c **** }
 213:Drivers/STM32F1xx_HAL_Driver/Src/stm32f1xx_hal_dma.c **** 
 214:Drivers/STM32F1xx_HAL_Driver/Src/stm32f1xx_hal_dma.c **** /**
 215:Drivers/STM32F1xx_HAL_Driver/Src/stm32f1xx_hal_dma.c ****   * @brief  DeInitialize the DMA peripheral.
 216:Drivers/STM32F1xx_HAL_Driver/Src/stm32f1xx_hal_dma.c ****   * @param  hdma: pointer to a DMA_HandleTypeDef structure that contains
 217:Drivers/STM32F1xx_HAL_Driver/Src/stm32f1xx_hal_dma.c ****   *               the configuration information for the specified DMA Channel.
 218:Drivers/STM32F1xx_HAL_Driver/Src/stm32f1xx_hal_dma.c ****   * @retval HAL status
 219:Drivers/STM32F1xx_HAL_Driver/Src/stm32f1xx_hal_dma.c ****   */
 220:Drivers/STM32F1xx_HAL_Driver/Src/stm32f1xx_hal_dma.c **** HAL_StatusTypeDef HAL_DMA_DeInit(DMA_HandleTypeDef *hdma)
 221:Drivers/STM32F1xx_HAL_Driver/Src/stm32f1xx_hal_dma.c **** {
 222:Drivers/STM32F1xx_HAL_Driver/Src/stm32f1xx_hal_dma.c ****   /* Check the DMA handle allocation */
 223:Drivers/STM32F1xx_HAL_Driver/Src/stm32f1xx_hal_dma.c ****   if(hdma == NULL)
 224:Drivers/STM32F1xx_HAL_Driver/Src/stm32f1xx_hal_dma.c ****   {
 225:Drivers/STM32F1xx_HAL_Driver/Src/stm32f1xx_hal_dma.c ****     return HAL_ERROR;
 226:Drivers/STM32F1xx_HAL_Driver/Src/stm32f1xx_hal_dma.c ****   }
 227:Drivers/STM32F1xx_HAL_Driver/Src/stm32f1xx_hal_dma.c **** 
 228:Drivers/STM32F1xx_HAL_Driver/Src/stm32f1xx_hal_dma.c ****   /* Check the parameters */
 229:Drivers/STM32F1xx_HAL_Driver/Src/stm32f1xx_hal_dma.c ****   assert_param(IS_DMA_ALL_INSTANCE(hdma->Instance));
 230:Drivers/STM32F1xx_HAL_Driver/Src/stm32f1xx_hal_dma.c **** 
 231:Drivers/STM32F1xx_HAL_Driver/Src/stm32f1xx_hal_dma.c ****   /* Disable the selected DMA Channelx */
 232:Drivers/STM32F1xx_HAL_Driver/Src/stm32f1xx_hal_dma.c ****   __HAL_DMA_DISABLE(hdma);
 233:Drivers/STM32F1xx_HAL_Driver/Src/stm32f1xx_hal_dma.c **** 
 234:Drivers/STM32F1xx_HAL_Driver/Src/stm32f1xx_hal_dma.c ****   /* Reset DMA Channel control register */
 235:Drivers/STM32F1xx_HAL_Driver/Src/stm32f1xx_hal_dma.c ****   hdma->Instance->CCR  = 0U;
 236:Drivers/STM32F1xx_HAL_Driver/Src/stm32f1xx_hal_dma.c **** 
 237:Drivers/STM32F1xx_HAL_Driver/Src/stm32f1xx_hal_dma.c ****   /* Reset DMA Channel Number of Data to Transfer register */
 238:Drivers/STM32F1xx_HAL_Driver/Src/stm32f1xx_hal_dma.c ****   hdma->Instance->CNDTR = 0U;
 239:Drivers/STM32F1xx_HAL_Driver/Src/stm32f1xx_hal_dma.c **** 
 240:Drivers/STM32F1xx_HAL_Driver/Src/stm32f1xx_hal_dma.c ****   /* Reset DMA Channel peripheral address register */
 241:Drivers/STM32F1xx_HAL_Driver/Src/stm32f1xx_hal_dma.c ****   hdma->Instance->CPAR  = 0U;
 242:Drivers/STM32F1xx_HAL_Driver/Src/stm32f1xx_hal_dma.c **** 
 243:Drivers/STM32F1xx_HAL_Driver/Src/stm32f1xx_hal_dma.c ****   /* Reset DMA Channel memory address register */
 244:Drivers/STM32F1xx_HAL_Driver/Src/stm32f1xx_hal_dma.c ****   hdma->Instance->CMAR = 0U;
 245:Drivers/STM32F1xx_HAL_Driver/Src/stm32f1xx_hal_dma.c **** 
 246:Drivers/STM32F1xx_HAL_Driver/Src/stm32f1xx_hal_dma.c **** #if defined (DMA2)
 247:Drivers/STM32F1xx_HAL_Driver/Src/stm32f1xx_hal_dma.c ****   /* calculation of the channel index */
 248:Drivers/STM32F1xx_HAL_Driver/Src/stm32f1xx_hal_dma.c ****   if ((uint32_t)(hdma->Instance) < (uint32_t)(DMA2_Channel1))
 249:Drivers/STM32F1xx_HAL_Driver/Src/stm32f1xx_hal_dma.c ****   {
 250:Drivers/STM32F1xx_HAL_Driver/Src/stm32f1xx_hal_dma.c ****     /* DMA1 */
 251:Drivers/STM32F1xx_HAL_Driver/Src/stm32f1xx_hal_dma.c ****     hdma->ChannelIndex = (((uint32_t)hdma->Instance - (uint32_t)DMA1_Channel1) / ((uint32_t)DMA1_Ch
 252:Drivers/STM32F1xx_HAL_Driver/Src/stm32f1xx_hal_dma.c ****     hdma->DmaBaseAddress = DMA1;
 253:Drivers/STM32F1xx_HAL_Driver/Src/stm32f1xx_hal_dma.c ****   }
 254:Drivers/STM32F1xx_HAL_Driver/Src/stm32f1xx_hal_dma.c ****   else
 255:Drivers/STM32F1xx_HAL_Driver/Src/stm32f1xx_hal_dma.c ****   {
 256:Drivers/STM32F1xx_HAL_Driver/Src/stm32f1xx_hal_dma.c ****     /* DMA2 */
 257:Drivers/STM32F1xx_HAL_Driver/Src/stm32f1xx_hal_dma.c ****     hdma->ChannelIndex = (((uint32_t)hdma->Instance - (uint32_t)DMA2_Channel1) / ((uint32_t)DMA2_Ch
 258:Drivers/STM32F1xx_HAL_Driver/Src/stm32f1xx_hal_dma.c ****     hdma->DmaBaseAddress = DMA2;
 259:Drivers/STM32F1xx_HAL_Driver/Src/stm32f1xx_hal_dma.c ****   }
 260:Drivers/STM32F1xx_HAL_Driver/Src/stm32f1xx_hal_dma.c **** #else
ARM GAS  C:\Users\HARTO_~1\AppData\Local\Temp\ccO3OpW0.s 			page 6


 261:Drivers/STM32F1xx_HAL_Driver/Src/stm32f1xx_hal_dma.c ****   /* DMA1 */
 262:Drivers/STM32F1xx_HAL_Driver/Src/stm32f1xx_hal_dma.c ****   hdma->ChannelIndex = (((uint32_t)hdma->Instance - (uint32_t)DMA1_Channel1) / ((uint32_t)DMA1_Chan
 263:Drivers/STM32F1xx_HAL_Driver/Src/stm32f1xx_hal_dma.c ****   hdma->DmaBaseAddress = DMA1;
 264:Drivers/STM32F1xx_HAL_Driver/Src/stm32f1xx_hal_dma.c **** #endif /* DMA2 */
 265:Drivers/STM32F1xx_HAL_Driver/Src/stm32f1xx_hal_dma.c **** 
 266:Drivers/STM32F1xx_HAL_Driver/Src/stm32f1xx_hal_dma.c ****   /* Clear all flags */
 267:Drivers/STM32F1xx_HAL_Driver/Src/stm32f1xx_hal_dma.c ****   hdma->DmaBaseAddress->IFCR = (DMA_ISR_GIF1 << (hdma->ChannelIndex));
 268:Drivers/STM32F1xx_HAL_Driver/Src/stm32f1xx_hal_dma.c **** 
 269:Drivers/STM32F1xx_HAL_Driver/Src/stm32f1xx_hal_dma.c ****   /* Clean all callbacks */
 270:Drivers/STM32F1xx_HAL_Driver/Src/stm32f1xx_hal_dma.c ****   hdma->XferCpltCallback = NULL;
 271:Drivers/STM32F1xx_HAL_Driver/Src/stm32f1xx_hal_dma.c ****   hdma->XferHalfCpltCallback = NULL;
 272:Drivers/STM32F1xx_HAL_Driver/Src/stm32f1xx_hal_dma.c ****   hdma->XferErrorCallback = NULL;
 273:Drivers/STM32F1xx_HAL_Driver/Src/stm32f1xx_hal_dma.c ****   hdma->XferAbortCallback = NULL;
 274:Drivers/STM32F1xx_HAL_Driver/Src/stm32f1xx_hal_dma.c **** 
 275:Drivers/STM32F1xx_HAL_Driver/Src/stm32f1xx_hal_dma.c ****   /* Reset the error code */
 276:Drivers/STM32F1xx_HAL_Driver/Src/stm32f1xx_hal_dma.c ****   hdma->ErrorCode = HAL_DMA_ERROR_NONE;
 277:Drivers/STM32F1xx_HAL_Driver/Src/stm32f1xx_hal_dma.c **** 
 278:Drivers/STM32F1xx_HAL_Driver/Src/stm32f1xx_hal_dma.c ****   /* Reset the DMA state */
 279:Drivers/STM32F1xx_HAL_Driver/Src/stm32f1xx_hal_dma.c ****   hdma->State = HAL_DMA_STATE_RESET;
 280:Drivers/STM32F1xx_HAL_Driver/Src/stm32f1xx_hal_dma.c **** 
 281:Drivers/STM32F1xx_HAL_Driver/Src/stm32f1xx_hal_dma.c ****   /* Release Lock */
 282:Drivers/STM32F1xx_HAL_Driver/Src/stm32f1xx_hal_dma.c ****   __HAL_UNLOCK(hdma);
 283:Drivers/STM32F1xx_HAL_Driver/Src/stm32f1xx_hal_dma.c **** 
 284:Drivers/STM32F1xx_HAL_Driver/Src/stm32f1xx_hal_dma.c ****   return HAL_OK;
 285:Drivers/STM32F1xx_HAL_Driver/Src/stm32f1xx_hal_dma.c **** }
 286:Drivers/STM32F1xx_HAL_Driver/Src/stm32f1xx_hal_dma.c **** 
 287:Drivers/STM32F1xx_HAL_Driver/Src/stm32f1xx_hal_dma.c **** /**
 288:Drivers/STM32F1xx_HAL_Driver/Src/stm32f1xx_hal_dma.c ****   * @}
 289:Drivers/STM32F1xx_HAL_Driver/Src/stm32f1xx_hal_dma.c ****   */
 290:Drivers/STM32F1xx_HAL_Driver/Src/stm32f1xx_hal_dma.c **** 
 291:Drivers/STM32F1xx_HAL_Driver/Src/stm32f1xx_hal_dma.c **** /** @defgroup DMA_Exported_Functions_Group2 Input and Output operation functions
 292:Drivers/STM32F1xx_HAL_Driver/Src/stm32f1xx_hal_dma.c ****   *  @brief   Input and Output operation functions
 293:Drivers/STM32F1xx_HAL_Driver/Src/stm32f1xx_hal_dma.c ****   *
 294:Drivers/STM32F1xx_HAL_Driver/Src/stm32f1xx_hal_dma.c **** @verbatim
 295:Drivers/STM32F1xx_HAL_Driver/Src/stm32f1xx_hal_dma.c ****  ===============================================================================
 296:Drivers/STM32F1xx_HAL_Driver/Src/stm32f1xx_hal_dma.c ****                       #####  IO operation functions  #####
 297:Drivers/STM32F1xx_HAL_Driver/Src/stm32f1xx_hal_dma.c ****  ===============================================================================
 298:Drivers/STM32F1xx_HAL_Driver/Src/stm32f1xx_hal_dma.c ****     [..]  This section provides functions allowing to:
 299:Drivers/STM32F1xx_HAL_Driver/Src/stm32f1xx_hal_dma.c ****       (+) Configure the source, destination address and data length and Start DMA transfer
 300:Drivers/STM32F1xx_HAL_Driver/Src/stm32f1xx_hal_dma.c ****       (+) Configure the source, destination address and data length and
 301:Drivers/STM32F1xx_HAL_Driver/Src/stm32f1xx_hal_dma.c ****           Start DMA transfer with interrupt
 302:Drivers/STM32F1xx_HAL_Driver/Src/stm32f1xx_hal_dma.c ****       (+) Abort DMA transfer
 303:Drivers/STM32F1xx_HAL_Driver/Src/stm32f1xx_hal_dma.c ****       (+) Poll for transfer complete
 304:Drivers/STM32F1xx_HAL_Driver/Src/stm32f1xx_hal_dma.c ****       (+) Handle DMA interrupt request
 305:Drivers/STM32F1xx_HAL_Driver/Src/stm32f1xx_hal_dma.c **** 
 306:Drivers/STM32F1xx_HAL_Driver/Src/stm32f1xx_hal_dma.c **** @endverbatim
 307:Drivers/STM32F1xx_HAL_Driver/Src/stm32f1xx_hal_dma.c ****   * @{
 308:Drivers/STM32F1xx_HAL_Driver/Src/stm32f1xx_hal_dma.c ****   */
 309:Drivers/STM32F1xx_HAL_Driver/Src/stm32f1xx_hal_dma.c **** 
 310:Drivers/STM32F1xx_HAL_Driver/Src/stm32f1xx_hal_dma.c **** /**
 311:Drivers/STM32F1xx_HAL_Driver/Src/stm32f1xx_hal_dma.c ****   * @brief  Start the DMA Transfer.
 312:Drivers/STM32F1xx_HAL_Driver/Src/stm32f1xx_hal_dma.c ****   * @param  hdma: pointer to a DMA_HandleTypeDef structure that contains
 313:Drivers/STM32F1xx_HAL_Driver/Src/stm32f1xx_hal_dma.c ****   *               the configuration information for the specified DMA Channel.
 314:Drivers/STM32F1xx_HAL_Driver/Src/stm32f1xx_hal_dma.c ****   * @param  SrcAddress: The source memory Buffer address
 315:Drivers/STM32F1xx_HAL_Driver/Src/stm32f1xx_hal_dma.c ****   * @param  DstAddress: The destination memory Buffer address
 316:Drivers/STM32F1xx_HAL_Driver/Src/stm32f1xx_hal_dma.c ****   * @param  DataLength: The length of data to be transferred from source to destination
 317:Drivers/STM32F1xx_HAL_Driver/Src/stm32f1xx_hal_dma.c ****   * @retval HAL status
ARM GAS  C:\Users\HARTO_~1\AppData\Local\Temp\ccO3OpW0.s 			page 7


 318:Drivers/STM32F1xx_HAL_Driver/Src/stm32f1xx_hal_dma.c ****   */
 319:Drivers/STM32F1xx_HAL_Driver/Src/stm32f1xx_hal_dma.c **** HAL_StatusTypeDef HAL_DMA_Start(DMA_HandleTypeDef *hdma, uint32_t SrcAddress, uint32_t DstAddress, 
 320:Drivers/STM32F1xx_HAL_Driver/Src/stm32f1xx_hal_dma.c **** {
 321:Drivers/STM32F1xx_HAL_Driver/Src/stm32f1xx_hal_dma.c ****   HAL_StatusTypeDef status = HAL_OK;
 322:Drivers/STM32F1xx_HAL_Driver/Src/stm32f1xx_hal_dma.c **** 
 323:Drivers/STM32F1xx_HAL_Driver/Src/stm32f1xx_hal_dma.c ****   /* Check the parameters */
 324:Drivers/STM32F1xx_HAL_Driver/Src/stm32f1xx_hal_dma.c ****   assert_param(IS_DMA_BUFFER_SIZE(DataLength));
 325:Drivers/STM32F1xx_HAL_Driver/Src/stm32f1xx_hal_dma.c **** 
 326:Drivers/STM32F1xx_HAL_Driver/Src/stm32f1xx_hal_dma.c ****   /* Process locked */
 327:Drivers/STM32F1xx_HAL_Driver/Src/stm32f1xx_hal_dma.c ****   __HAL_LOCK(hdma);
 328:Drivers/STM32F1xx_HAL_Driver/Src/stm32f1xx_hal_dma.c **** 
 329:Drivers/STM32F1xx_HAL_Driver/Src/stm32f1xx_hal_dma.c ****   if(HAL_DMA_STATE_READY == hdma->State)
 330:Drivers/STM32F1xx_HAL_Driver/Src/stm32f1xx_hal_dma.c ****   {
 331:Drivers/STM32F1xx_HAL_Driver/Src/stm32f1xx_hal_dma.c ****     /* Change DMA peripheral state */
 332:Drivers/STM32F1xx_HAL_Driver/Src/stm32f1xx_hal_dma.c ****     hdma->State = HAL_DMA_STATE_BUSY;
 333:Drivers/STM32F1xx_HAL_Driver/Src/stm32f1xx_hal_dma.c ****     hdma->ErrorCode = HAL_DMA_ERROR_NONE;
 334:Drivers/STM32F1xx_HAL_Driver/Src/stm32f1xx_hal_dma.c ****             
 335:Drivers/STM32F1xx_HAL_Driver/Src/stm32f1xx_hal_dma.c ****     /* Disable the peripheral */
 336:Drivers/STM32F1xx_HAL_Driver/Src/stm32f1xx_hal_dma.c ****     __HAL_DMA_DISABLE(hdma);
 337:Drivers/STM32F1xx_HAL_Driver/Src/stm32f1xx_hal_dma.c ****     
 338:Drivers/STM32F1xx_HAL_Driver/Src/stm32f1xx_hal_dma.c ****     /* Configure the source, destination address and the data length & clear flags*/
 339:Drivers/STM32F1xx_HAL_Driver/Src/stm32f1xx_hal_dma.c ****     DMA_SetConfig(hdma, SrcAddress, DstAddress, DataLength);
 340:Drivers/STM32F1xx_HAL_Driver/Src/stm32f1xx_hal_dma.c ****     
 341:Drivers/STM32F1xx_HAL_Driver/Src/stm32f1xx_hal_dma.c ****     /* Enable the Peripheral */
 342:Drivers/STM32F1xx_HAL_Driver/Src/stm32f1xx_hal_dma.c ****     __HAL_DMA_ENABLE(hdma);
 343:Drivers/STM32F1xx_HAL_Driver/Src/stm32f1xx_hal_dma.c ****   }
 344:Drivers/STM32F1xx_HAL_Driver/Src/stm32f1xx_hal_dma.c ****   else
 345:Drivers/STM32F1xx_HAL_Driver/Src/stm32f1xx_hal_dma.c ****   {
 346:Drivers/STM32F1xx_HAL_Driver/Src/stm32f1xx_hal_dma.c ****    /* Process Unlocked */
 347:Drivers/STM32F1xx_HAL_Driver/Src/stm32f1xx_hal_dma.c ****    __HAL_UNLOCK(hdma);  
 348:Drivers/STM32F1xx_HAL_Driver/Src/stm32f1xx_hal_dma.c ****    status = HAL_BUSY;
 349:Drivers/STM32F1xx_HAL_Driver/Src/stm32f1xx_hal_dma.c ****   }  
 350:Drivers/STM32F1xx_HAL_Driver/Src/stm32f1xx_hal_dma.c ****   return status;
 351:Drivers/STM32F1xx_HAL_Driver/Src/stm32f1xx_hal_dma.c **** }
 352:Drivers/STM32F1xx_HAL_Driver/Src/stm32f1xx_hal_dma.c **** 
 353:Drivers/STM32F1xx_HAL_Driver/Src/stm32f1xx_hal_dma.c **** /**
 354:Drivers/STM32F1xx_HAL_Driver/Src/stm32f1xx_hal_dma.c ****   * @brief  Start the DMA Transfer with interrupt enabled.
 355:Drivers/STM32F1xx_HAL_Driver/Src/stm32f1xx_hal_dma.c ****   * @param  hdma: pointer to a DMA_HandleTypeDef structure that contains
 356:Drivers/STM32F1xx_HAL_Driver/Src/stm32f1xx_hal_dma.c ****   *               the configuration information for the specified DMA Channel.
 357:Drivers/STM32F1xx_HAL_Driver/Src/stm32f1xx_hal_dma.c ****   * @param  SrcAddress: The source memory Buffer address
 358:Drivers/STM32F1xx_HAL_Driver/Src/stm32f1xx_hal_dma.c ****   * @param  DstAddress: The destination memory Buffer address
 359:Drivers/STM32F1xx_HAL_Driver/Src/stm32f1xx_hal_dma.c ****   * @param  DataLength: The length of data to be transferred from source to destination
 360:Drivers/STM32F1xx_HAL_Driver/Src/stm32f1xx_hal_dma.c ****   * @retval HAL status
 361:Drivers/STM32F1xx_HAL_Driver/Src/stm32f1xx_hal_dma.c ****   */
 362:Drivers/STM32F1xx_HAL_Driver/Src/stm32f1xx_hal_dma.c **** HAL_StatusTypeDef HAL_DMA_Start_IT(DMA_HandleTypeDef *hdma, uint32_t SrcAddress, uint32_t DstAddres
 363:Drivers/STM32F1xx_HAL_Driver/Src/stm32f1xx_hal_dma.c **** {
 364:Drivers/STM32F1xx_HAL_Driver/Src/stm32f1xx_hal_dma.c ****   HAL_StatusTypeDef status = HAL_OK;
 365:Drivers/STM32F1xx_HAL_Driver/Src/stm32f1xx_hal_dma.c **** 
 366:Drivers/STM32F1xx_HAL_Driver/Src/stm32f1xx_hal_dma.c ****   /* Check the parameters */
 367:Drivers/STM32F1xx_HAL_Driver/Src/stm32f1xx_hal_dma.c ****   assert_param(IS_DMA_BUFFER_SIZE(DataLength));
 368:Drivers/STM32F1xx_HAL_Driver/Src/stm32f1xx_hal_dma.c **** 
 369:Drivers/STM32F1xx_HAL_Driver/Src/stm32f1xx_hal_dma.c ****   /* Process locked */
 370:Drivers/STM32F1xx_HAL_Driver/Src/stm32f1xx_hal_dma.c ****   __HAL_LOCK(hdma);
 371:Drivers/STM32F1xx_HAL_Driver/Src/stm32f1xx_hal_dma.c ****   
 372:Drivers/STM32F1xx_HAL_Driver/Src/stm32f1xx_hal_dma.c ****   if(HAL_DMA_STATE_READY == hdma->State)
 373:Drivers/STM32F1xx_HAL_Driver/Src/stm32f1xx_hal_dma.c ****   {
 374:Drivers/STM32F1xx_HAL_Driver/Src/stm32f1xx_hal_dma.c ****     /* Change DMA peripheral state */
ARM GAS  C:\Users\HARTO_~1\AppData\Local\Temp\ccO3OpW0.s 			page 8


 375:Drivers/STM32F1xx_HAL_Driver/Src/stm32f1xx_hal_dma.c ****     hdma->State = HAL_DMA_STATE_BUSY;
 376:Drivers/STM32F1xx_HAL_Driver/Src/stm32f1xx_hal_dma.c ****     hdma->ErrorCode = HAL_DMA_ERROR_NONE;
 377:Drivers/STM32F1xx_HAL_Driver/Src/stm32f1xx_hal_dma.c ****     
 378:Drivers/STM32F1xx_HAL_Driver/Src/stm32f1xx_hal_dma.c ****     /* Disable the peripheral */
 379:Drivers/STM32F1xx_HAL_Driver/Src/stm32f1xx_hal_dma.c ****     __HAL_DMA_DISABLE(hdma);
 380:Drivers/STM32F1xx_HAL_Driver/Src/stm32f1xx_hal_dma.c ****     
 381:Drivers/STM32F1xx_HAL_Driver/Src/stm32f1xx_hal_dma.c ****     /* Configure the source, destination address and the data length & clear flags*/
 382:Drivers/STM32F1xx_HAL_Driver/Src/stm32f1xx_hal_dma.c ****     DMA_SetConfig(hdma, SrcAddress, DstAddress, DataLength);
 383:Drivers/STM32F1xx_HAL_Driver/Src/stm32f1xx_hal_dma.c ****     
 384:Drivers/STM32F1xx_HAL_Driver/Src/stm32f1xx_hal_dma.c ****     /* Enable the transfer complete interrupt */
 385:Drivers/STM32F1xx_HAL_Driver/Src/stm32f1xx_hal_dma.c ****     /* Enable the transfer Error interrupt */
 386:Drivers/STM32F1xx_HAL_Driver/Src/stm32f1xx_hal_dma.c ****     if(NULL != hdma->XferHalfCpltCallback)
 387:Drivers/STM32F1xx_HAL_Driver/Src/stm32f1xx_hal_dma.c ****     {
 388:Drivers/STM32F1xx_HAL_Driver/Src/stm32f1xx_hal_dma.c ****       /* Enable the Half transfer complete interrupt as well */
 389:Drivers/STM32F1xx_HAL_Driver/Src/stm32f1xx_hal_dma.c ****       __HAL_DMA_ENABLE_IT(hdma, (DMA_IT_TC | DMA_IT_HT | DMA_IT_TE));
 390:Drivers/STM32F1xx_HAL_Driver/Src/stm32f1xx_hal_dma.c ****     }
 391:Drivers/STM32F1xx_HAL_Driver/Src/stm32f1xx_hal_dma.c ****     else
 392:Drivers/STM32F1xx_HAL_Driver/Src/stm32f1xx_hal_dma.c ****     {
 393:Drivers/STM32F1xx_HAL_Driver/Src/stm32f1xx_hal_dma.c ****       __HAL_DMA_DISABLE_IT(hdma, DMA_IT_HT);
 394:Drivers/STM32F1xx_HAL_Driver/Src/stm32f1xx_hal_dma.c ****       __HAL_DMA_ENABLE_IT(hdma, (DMA_IT_TC | DMA_IT_TE));
 395:Drivers/STM32F1xx_HAL_Driver/Src/stm32f1xx_hal_dma.c ****     }
 396:Drivers/STM32F1xx_HAL_Driver/Src/stm32f1xx_hal_dma.c ****     /* Enable the Peripheral */
 397:Drivers/STM32F1xx_HAL_Driver/Src/stm32f1xx_hal_dma.c ****     __HAL_DMA_ENABLE(hdma);
 398:Drivers/STM32F1xx_HAL_Driver/Src/stm32f1xx_hal_dma.c ****   }
 399:Drivers/STM32F1xx_HAL_Driver/Src/stm32f1xx_hal_dma.c ****   else
 400:Drivers/STM32F1xx_HAL_Driver/Src/stm32f1xx_hal_dma.c ****   {      
 401:Drivers/STM32F1xx_HAL_Driver/Src/stm32f1xx_hal_dma.c ****     /* Process Unlocked */
 402:Drivers/STM32F1xx_HAL_Driver/Src/stm32f1xx_hal_dma.c ****     __HAL_UNLOCK(hdma); 
 403:Drivers/STM32F1xx_HAL_Driver/Src/stm32f1xx_hal_dma.c **** 
 404:Drivers/STM32F1xx_HAL_Driver/Src/stm32f1xx_hal_dma.c ****     /* Remain BUSY */
 405:Drivers/STM32F1xx_HAL_Driver/Src/stm32f1xx_hal_dma.c ****     status = HAL_BUSY;
 406:Drivers/STM32F1xx_HAL_Driver/Src/stm32f1xx_hal_dma.c ****   }    
 407:Drivers/STM32F1xx_HAL_Driver/Src/stm32f1xx_hal_dma.c ****   return status;
 408:Drivers/STM32F1xx_HAL_Driver/Src/stm32f1xx_hal_dma.c **** }
 409:Drivers/STM32F1xx_HAL_Driver/Src/stm32f1xx_hal_dma.c **** 
 410:Drivers/STM32F1xx_HAL_Driver/Src/stm32f1xx_hal_dma.c **** /**
 411:Drivers/STM32F1xx_HAL_Driver/Src/stm32f1xx_hal_dma.c ****   * @brief  Abort the DMA Transfer.
 412:Drivers/STM32F1xx_HAL_Driver/Src/stm32f1xx_hal_dma.c ****   * @param  hdma: pointer to a DMA_HandleTypeDef structure that contains
 413:Drivers/STM32F1xx_HAL_Driver/Src/stm32f1xx_hal_dma.c ****   *               the configuration information for the specified DMA Channel.
 414:Drivers/STM32F1xx_HAL_Driver/Src/stm32f1xx_hal_dma.c ****   * @retval HAL status
 415:Drivers/STM32F1xx_HAL_Driver/Src/stm32f1xx_hal_dma.c ****   */
 416:Drivers/STM32F1xx_HAL_Driver/Src/stm32f1xx_hal_dma.c **** HAL_StatusTypeDef HAL_DMA_Abort(DMA_HandleTypeDef *hdma)
 417:Drivers/STM32F1xx_HAL_Driver/Src/stm32f1xx_hal_dma.c **** {
 418:Drivers/STM32F1xx_HAL_Driver/Src/stm32f1xx_hal_dma.c ****   HAL_StatusTypeDef status = HAL_OK;
 419:Drivers/STM32F1xx_HAL_Driver/Src/stm32f1xx_hal_dma.c ****   
 420:Drivers/STM32F1xx_HAL_Driver/Src/stm32f1xx_hal_dma.c ****   if(hdma->State != HAL_DMA_STATE_BUSY)
 421:Drivers/STM32F1xx_HAL_Driver/Src/stm32f1xx_hal_dma.c ****   {
 422:Drivers/STM32F1xx_HAL_Driver/Src/stm32f1xx_hal_dma.c ****     /* no transfer ongoing */
 423:Drivers/STM32F1xx_HAL_Driver/Src/stm32f1xx_hal_dma.c ****     hdma->ErrorCode = HAL_DMA_ERROR_NO_XFER;
 424:Drivers/STM32F1xx_HAL_Driver/Src/stm32f1xx_hal_dma.c ****     
 425:Drivers/STM32F1xx_HAL_Driver/Src/stm32f1xx_hal_dma.c ****     /* Process Unlocked */
 426:Drivers/STM32F1xx_HAL_Driver/Src/stm32f1xx_hal_dma.c ****     __HAL_UNLOCK(hdma);
 427:Drivers/STM32F1xx_HAL_Driver/Src/stm32f1xx_hal_dma.c ****     
 428:Drivers/STM32F1xx_HAL_Driver/Src/stm32f1xx_hal_dma.c ****     return HAL_ERROR;
 429:Drivers/STM32F1xx_HAL_Driver/Src/stm32f1xx_hal_dma.c ****   }
 430:Drivers/STM32F1xx_HAL_Driver/Src/stm32f1xx_hal_dma.c ****   else
 431:Drivers/STM32F1xx_HAL_Driver/Src/stm32f1xx_hal_dma.c **** 
ARM GAS  C:\Users\HARTO_~1\AppData\Local\Temp\ccO3OpW0.s 			page 9


 432:Drivers/STM32F1xx_HAL_Driver/Src/stm32f1xx_hal_dma.c ****   {
 433:Drivers/STM32F1xx_HAL_Driver/Src/stm32f1xx_hal_dma.c ****     /* Disable DMA IT */
 434:Drivers/STM32F1xx_HAL_Driver/Src/stm32f1xx_hal_dma.c ****     __HAL_DMA_DISABLE_IT(hdma, (DMA_IT_TC | DMA_IT_HT | DMA_IT_TE));
 435:Drivers/STM32F1xx_HAL_Driver/Src/stm32f1xx_hal_dma.c ****       
 436:Drivers/STM32F1xx_HAL_Driver/Src/stm32f1xx_hal_dma.c ****     /* Disable the channel */
 437:Drivers/STM32F1xx_HAL_Driver/Src/stm32f1xx_hal_dma.c ****     __HAL_DMA_DISABLE(hdma);
 438:Drivers/STM32F1xx_HAL_Driver/Src/stm32f1xx_hal_dma.c ****       
 439:Drivers/STM32F1xx_HAL_Driver/Src/stm32f1xx_hal_dma.c ****     /* Clear all flags */
 440:Drivers/STM32F1xx_HAL_Driver/Src/stm32f1xx_hal_dma.c ****     hdma->DmaBaseAddress->IFCR = (DMA_ISR_GIF1 << hdma->ChannelIndex);
 441:Drivers/STM32F1xx_HAL_Driver/Src/stm32f1xx_hal_dma.c ****   }
 442:Drivers/STM32F1xx_HAL_Driver/Src/stm32f1xx_hal_dma.c ****   /* Change the DMA state */
 443:Drivers/STM32F1xx_HAL_Driver/Src/stm32f1xx_hal_dma.c ****   hdma->State = HAL_DMA_STATE_READY;
 444:Drivers/STM32F1xx_HAL_Driver/Src/stm32f1xx_hal_dma.c **** 
 445:Drivers/STM32F1xx_HAL_Driver/Src/stm32f1xx_hal_dma.c ****   /* Process Unlocked */
 446:Drivers/STM32F1xx_HAL_Driver/Src/stm32f1xx_hal_dma.c ****   __HAL_UNLOCK(hdma);      
 447:Drivers/STM32F1xx_HAL_Driver/Src/stm32f1xx_hal_dma.c ****   
 448:Drivers/STM32F1xx_HAL_Driver/Src/stm32f1xx_hal_dma.c ****   return status; 
 449:Drivers/STM32F1xx_HAL_Driver/Src/stm32f1xx_hal_dma.c **** }
 450:Drivers/STM32F1xx_HAL_Driver/Src/stm32f1xx_hal_dma.c **** 
 451:Drivers/STM32F1xx_HAL_Driver/Src/stm32f1xx_hal_dma.c **** /**
 452:Drivers/STM32F1xx_HAL_Driver/Src/stm32f1xx_hal_dma.c ****   * @brief  Aborts the DMA Transfer in Interrupt mode.
 453:Drivers/STM32F1xx_HAL_Driver/Src/stm32f1xx_hal_dma.c ****   * @param  hdma  : pointer to a DMA_HandleTypeDef structure that contains
 454:Drivers/STM32F1xx_HAL_Driver/Src/stm32f1xx_hal_dma.c ****   *                 the configuration information for the specified DMA Channel.
 455:Drivers/STM32F1xx_HAL_Driver/Src/stm32f1xx_hal_dma.c ****   * @retval HAL status
 456:Drivers/STM32F1xx_HAL_Driver/Src/stm32f1xx_hal_dma.c ****   */
 457:Drivers/STM32F1xx_HAL_Driver/Src/stm32f1xx_hal_dma.c **** HAL_StatusTypeDef HAL_DMA_Abort_IT(DMA_HandleTypeDef *hdma)
 458:Drivers/STM32F1xx_HAL_Driver/Src/stm32f1xx_hal_dma.c **** {  
 459:Drivers/STM32F1xx_HAL_Driver/Src/stm32f1xx_hal_dma.c ****   HAL_StatusTypeDef status = HAL_OK;
 460:Drivers/STM32F1xx_HAL_Driver/Src/stm32f1xx_hal_dma.c ****   
 461:Drivers/STM32F1xx_HAL_Driver/Src/stm32f1xx_hal_dma.c ****   if(HAL_DMA_STATE_BUSY != hdma->State)
 462:Drivers/STM32F1xx_HAL_Driver/Src/stm32f1xx_hal_dma.c ****   {
 463:Drivers/STM32F1xx_HAL_Driver/Src/stm32f1xx_hal_dma.c ****     /* no transfer ongoing */
 464:Drivers/STM32F1xx_HAL_Driver/Src/stm32f1xx_hal_dma.c ****     hdma->ErrorCode = HAL_DMA_ERROR_NO_XFER;
 465:Drivers/STM32F1xx_HAL_Driver/Src/stm32f1xx_hal_dma.c ****         
 466:Drivers/STM32F1xx_HAL_Driver/Src/stm32f1xx_hal_dma.c ****     status = HAL_ERROR;
 467:Drivers/STM32F1xx_HAL_Driver/Src/stm32f1xx_hal_dma.c ****   }
 468:Drivers/STM32F1xx_HAL_Driver/Src/stm32f1xx_hal_dma.c ****   else
 469:Drivers/STM32F1xx_HAL_Driver/Src/stm32f1xx_hal_dma.c ****   { 
 470:Drivers/STM32F1xx_HAL_Driver/Src/stm32f1xx_hal_dma.c ****     /* Disable DMA IT */
 471:Drivers/STM32F1xx_HAL_Driver/Src/stm32f1xx_hal_dma.c ****     __HAL_DMA_DISABLE_IT(hdma, (DMA_IT_TC | DMA_IT_HT | DMA_IT_TE));
 472:Drivers/STM32F1xx_HAL_Driver/Src/stm32f1xx_hal_dma.c **** 
 473:Drivers/STM32F1xx_HAL_Driver/Src/stm32f1xx_hal_dma.c ****     /* Disable the channel */
 474:Drivers/STM32F1xx_HAL_Driver/Src/stm32f1xx_hal_dma.c ****     __HAL_DMA_DISABLE(hdma);
 475:Drivers/STM32F1xx_HAL_Driver/Src/stm32f1xx_hal_dma.c **** 
 476:Drivers/STM32F1xx_HAL_Driver/Src/stm32f1xx_hal_dma.c ****     /* Clear all flags */
 477:Drivers/STM32F1xx_HAL_Driver/Src/stm32f1xx_hal_dma.c ****     __HAL_DMA_CLEAR_FLAG(hdma, __HAL_DMA_GET_GI_FLAG_INDEX(hdma));
 478:Drivers/STM32F1xx_HAL_Driver/Src/stm32f1xx_hal_dma.c **** 
 479:Drivers/STM32F1xx_HAL_Driver/Src/stm32f1xx_hal_dma.c ****     /* Change the DMA state */
 480:Drivers/STM32F1xx_HAL_Driver/Src/stm32f1xx_hal_dma.c ****     hdma->State = HAL_DMA_STATE_READY;
 481:Drivers/STM32F1xx_HAL_Driver/Src/stm32f1xx_hal_dma.c **** 
 482:Drivers/STM32F1xx_HAL_Driver/Src/stm32f1xx_hal_dma.c ****     /* Process Unlocked */
 483:Drivers/STM32F1xx_HAL_Driver/Src/stm32f1xx_hal_dma.c ****     __HAL_UNLOCK(hdma);
 484:Drivers/STM32F1xx_HAL_Driver/Src/stm32f1xx_hal_dma.c **** 
 485:Drivers/STM32F1xx_HAL_Driver/Src/stm32f1xx_hal_dma.c ****     /* Call User Abort callback */
 486:Drivers/STM32F1xx_HAL_Driver/Src/stm32f1xx_hal_dma.c ****     if(hdma->XferAbortCallback != NULL)
 487:Drivers/STM32F1xx_HAL_Driver/Src/stm32f1xx_hal_dma.c ****     {
 488:Drivers/STM32F1xx_HAL_Driver/Src/stm32f1xx_hal_dma.c ****       hdma->XferAbortCallback(hdma);
ARM GAS  C:\Users\HARTO_~1\AppData\Local\Temp\ccO3OpW0.s 			page 10


 489:Drivers/STM32F1xx_HAL_Driver/Src/stm32f1xx_hal_dma.c ****     } 
 490:Drivers/STM32F1xx_HAL_Driver/Src/stm32f1xx_hal_dma.c ****   }
 491:Drivers/STM32F1xx_HAL_Driver/Src/stm32f1xx_hal_dma.c ****   return status;
 492:Drivers/STM32F1xx_HAL_Driver/Src/stm32f1xx_hal_dma.c **** }
 493:Drivers/STM32F1xx_HAL_Driver/Src/stm32f1xx_hal_dma.c **** 
 494:Drivers/STM32F1xx_HAL_Driver/Src/stm32f1xx_hal_dma.c **** /**
 495:Drivers/STM32F1xx_HAL_Driver/Src/stm32f1xx_hal_dma.c ****   * @brief  Polling for transfer complete.
 496:Drivers/STM32F1xx_HAL_Driver/Src/stm32f1xx_hal_dma.c ****   * @param  hdma:    pointer to a DMA_HandleTypeDef structure that contains
 497:Drivers/STM32F1xx_HAL_Driver/Src/stm32f1xx_hal_dma.c ****   *                  the configuration information for the specified DMA Channel.
 498:Drivers/STM32F1xx_HAL_Driver/Src/stm32f1xx_hal_dma.c ****   * @param  CompleteLevel: Specifies the DMA level complete.
 499:Drivers/STM32F1xx_HAL_Driver/Src/stm32f1xx_hal_dma.c ****   * @param  Timeout:       Timeout duration.
 500:Drivers/STM32F1xx_HAL_Driver/Src/stm32f1xx_hal_dma.c ****   * @retval HAL status
 501:Drivers/STM32F1xx_HAL_Driver/Src/stm32f1xx_hal_dma.c ****   */
 502:Drivers/STM32F1xx_HAL_Driver/Src/stm32f1xx_hal_dma.c **** HAL_StatusTypeDef HAL_DMA_PollForTransfer(DMA_HandleTypeDef *hdma, uint32_t CompleteLevel, uint32_t
 503:Drivers/STM32F1xx_HAL_Driver/Src/stm32f1xx_hal_dma.c **** {
 504:Drivers/STM32F1xx_HAL_Driver/Src/stm32f1xx_hal_dma.c ****   uint32_t temp;
 505:Drivers/STM32F1xx_HAL_Driver/Src/stm32f1xx_hal_dma.c ****   uint32_t tickstart = 0U;
 506:Drivers/STM32F1xx_HAL_Driver/Src/stm32f1xx_hal_dma.c **** 
 507:Drivers/STM32F1xx_HAL_Driver/Src/stm32f1xx_hal_dma.c ****   if(HAL_DMA_STATE_BUSY != hdma->State)
 508:Drivers/STM32F1xx_HAL_Driver/Src/stm32f1xx_hal_dma.c ****   {
 509:Drivers/STM32F1xx_HAL_Driver/Src/stm32f1xx_hal_dma.c ****     /* no transfer ongoing */
 510:Drivers/STM32F1xx_HAL_Driver/Src/stm32f1xx_hal_dma.c ****     hdma->ErrorCode = HAL_DMA_ERROR_NO_XFER;
 511:Drivers/STM32F1xx_HAL_Driver/Src/stm32f1xx_hal_dma.c ****     __HAL_UNLOCK(hdma);
 512:Drivers/STM32F1xx_HAL_Driver/Src/stm32f1xx_hal_dma.c ****     return HAL_ERROR;
 513:Drivers/STM32F1xx_HAL_Driver/Src/stm32f1xx_hal_dma.c ****   }
 514:Drivers/STM32F1xx_HAL_Driver/Src/stm32f1xx_hal_dma.c **** 
 515:Drivers/STM32F1xx_HAL_Driver/Src/stm32f1xx_hal_dma.c ****   /* Polling mode not supported in circular mode */
 516:Drivers/STM32F1xx_HAL_Driver/Src/stm32f1xx_hal_dma.c ****   if (RESET != (hdma->Instance->CCR & DMA_CCR_CIRC))
 517:Drivers/STM32F1xx_HAL_Driver/Src/stm32f1xx_hal_dma.c ****   {
 518:Drivers/STM32F1xx_HAL_Driver/Src/stm32f1xx_hal_dma.c ****     hdma->ErrorCode = HAL_DMA_ERROR_NOT_SUPPORTED;
 519:Drivers/STM32F1xx_HAL_Driver/Src/stm32f1xx_hal_dma.c ****     return HAL_ERROR;
 520:Drivers/STM32F1xx_HAL_Driver/Src/stm32f1xx_hal_dma.c ****   }
 521:Drivers/STM32F1xx_HAL_Driver/Src/stm32f1xx_hal_dma.c ****   
 522:Drivers/STM32F1xx_HAL_Driver/Src/stm32f1xx_hal_dma.c ****   /* Get the level transfer complete flag */
 523:Drivers/STM32F1xx_HAL_Driver/Src/stm32f1xx_hal_dma.c ****   if(CompleteLevel == HAL_DMA_FULL_TRANSFER)
 524:Drivers/STM32F1xx_HAL_Driver/Src/stm32f1xx_hal_dma.c ****   {
 525:Drivers/STM32F1xx_HAL_Driver/Src/stm32f1xx_hal_dma.c ****     /* Transfer Complete flag */
 526:Drivers/STM32F1xx_HAL_Driver/Src/stm32f1xx_hal_dma.c ****     temp = __HAL_DMA_GET_TC_FLAG_INDEX(hdma);
 527:Drivers/STM32F1xx_HAL_Driver/Src/stm32f1xx_hal_dma.c ****   }
 528:Drivers/STM32F1xx_HAL_Driver/Src/stm32f1xx_hal_dma.c ****   else
 529:Drivers/STM32F1xx_HAL_Driver/Src/stm32f1xx_hal_dma.c ****   {
 530:Drivers/STM32F1xx_HAL_Driver/Src/stm32f1xx_hal_dma.c ****     /* Half Transfer Complete flag */
 531:Drivers/STM32F1xx_HAL_Driver/Src/stm32f1xx_hal_dma.c ****     temp = __HAL_DMA_GET_HT_FLAG_INDEX(hdma);
 532:Drivers/STM32F1xx_HAL_Driver/Src/stm32f1xx_hal_dma.c ****   }
 533:Drivers/STM32F1xx_HAL_Driver/Src/stm32f1xx_hal_dma.c **** 
 534:Drivers/STM32F1xx_HAL_Driver/Src/stm32f1xx_hal_dma.c ****   /* Get tick */
 535:Drivers/STM32F1xx_HAL_Driver/Src/stm32f1xx_hal_dma.c ****   tickstart = HAL_GetTick();
 536:Drivers/STM32F1xx_HAL_Driver/Src/stm32f1xx_hal_dma.c **** 
 537:Drivers/STM32F1xx_HAL_Driver/Src/stm32f1xx_hal_dma.c ****   while(__HAL_DMA_GET_FLAG(hdma, temp) == RESET)
 538:Drivers/STM32F1xx_HAL_Driver/Src/stm32f1xx_hal_dma.c ****   {
 539:Drivers/STM32F1xx_HAL_Driver/Src/stm32f1xx_hal_dma.c ****     if((__HAL_DMA_GET_FLAG(hdma, __HAL_DMA_GET_TE_FLAG_INDEX(hdma)) != RESET))
 540:Drivers/STM32F1xx_HAL_Driver/Src/stm32f1xx_hal_dma.c ****     {
 541:Drivers/STM32F1xx_HAL_Driver/Src/stm32f1xx_hal_dma.c ****       /* When a DMA transfer error occurs */
 542:Drivers/STM32F1xx_HAL_Driver/Src/stm32f1xx_hal_dma.c ****       /* A hardware clear of its EN bits is performed */
 543:Drivers/STM32F1xx_HAL_Driver/Src/stm32f1xx_hal_dma.c ****       /* Clear all flags */
 544:Drivers/STM32F1xx_HAL_Driver/Src/stm32f1xx_hal_dma.c ****       hdma->DmaBaseAddress->IFCR = (DMA_ISR_GIF1 << hdma->ChannelIndex);
 545:Drivers/STM32F1xx_HAL_Driver/Src/stm32f1xx_hal_dma.c **** 
ARM GAS  C:\Users\HARTO_~1\AppData\Local\Temp\ccO3OpW0.s 			page 11


 546:Drivers/STM32F1xx_HAL_Driver/Src/stm32f1xx_hal_dma.c ****       /* Update error code */
 547:Drivers/STM32F1xx_HAL_Driver/Src/stm32f1xx_hal_dma.c ****       SET_BIT(hdma->ErrorCode, HAL_DMA_ERROR_TE);
 548:Drivers/STM32F1xx_HAL_Driver/Src/stm32f1xx_hal_dma.c **** 
 549:Drivers/STM32F1xx_HAL_Driver/Src/stm32f1xx_hal_dma.c ****       /* Change the DMA state */
 550:Drivers/STM32F1xx_HAL_Driver/Src/stm32f1xx_hal_dma.c ****       hdma->State= HAL_DMA_STATE_READY;
 551:Drivers/STM32F1xx_HAL_Driver/Src/stm32f1xx_hal_dma.c **** 
 552:Drivers/STM32F1xx_HAL_Driver/Src/stm32f1xx_hal_dma.c ****       /* Process Unlocked */
 553:Drivers/STM32F1xx_HAL_Driver/Src/stm32f1xx_hal_dma.c ****       __HAL_UNLOCK(hdma);
 554:Drivers/STM32F1xx_HAL_Driver/Src/stm32f1xx_hal_dma.c **** 
 555:Drivers/STM32F1xx_HAL_Driver/Src/stm32f1xx_hal_dma.c ****       return HAL_ERROR;
 556:Drivers/STM32F1xx_HAL_Driver/Src/stm32f1xx_hal_dma.c ****     }
 557:Drivers/STM32F1xx_HAL_Driver/Src/stm32f1xx_hal_dma.c ****     /* Check for the Timeout */
 558:Drivers/STM32F1xx_HAL_Driver/Src/stm32f1xx_hal_dma.c ****     if(Timeout != HAL_MAX_DELAY)
 559:Drivers/STM32F1xx_HAL_Driver/Src/stm32f1xx_hal_dma.c ****     {
 560:Drivers/STM32F1xx_HAL_Driver/Src/stm32f1xx_hal_dma.c ****       if((Timeout == 0U) || ((HAL_GetTick() - tickstart) > Timeout))
 561:Drivers/STM32F1xx_HAL_Driver/Src/stm32f1xx_hal_dma.c ****       {
 562:Drivers/STM32F1xx_HAL_Driver/Src/stm32f1xx_hal_dma.c ****         /* Update error code */
 563:Drivers/STM32F1xx_HAL_Driver/Src/stm32f1xx_hal_dma.c ****         SET_BIT(hdma->ErrorCode, HAL_DMA_ERROR_TIMEOUT);
 564:Drivers/STM32F1xx_HAL_Driver/Src/stm32f1xx_hal_dma.c **** 
 565:Drivers/STM32F1xx_HAL_Driver/Src/stm32f1xx_hal_dma.c ****         /* Change the DMA state */
 566:Drivers/STM32F1xx_HAL_Driver/Src/stm32f1xx_hal_dma.c ****         hdma->State = HAL_DMA_STATE_READY;
 567:Drivers/STM32F1xx_HAL_Driver/Src/stm32f1xx_hal_dma.c **** 
 568:Drivers/STM32F1xx_HAL_Driver/Src/stm32f1xx_hal_dma.c ****         /* Process Unlocked */
 569:Drivers/STM32F1xx_HAL_Driver/Src/stm32f1xx_hal_dma.c ****         __HAL_UNLOCK(hdma);
 570:Drivers/STM32F1xx_HAL_Driver/Src/stm32f1xx_hal_dma.c **** 
 571:Drivers/STM32F1xx_HAL_Driver/Src/stm32f1xx_hal_dma.c ****         return HAL_ERROR;
 572:Drivers/STM32F1xx_HAL_Driver/Src/stm32f1xx_hal_dma.c ****       }
 573:Drivers/STM32F1xx_HAL_Driver/Src/stm32f1xx_hal_dma.c ****     }
 574:Drivers/STM32F1xx_HAL_Driver/Src/stm32f1xx_hal_dma.c ****   }
 575:Drivers/STM32F1xx_HAL_Driver/Src/stm32f1xx_hal_dma.c **** 
 576:Drivers/STM32F1xx_HAL_Driver/Src/stm32f1xx_hal_dma.c ****   if(CompleteLevel == HAL_DMA_FULL_TRANSFER)
 577:Drivers/STM32F1xx_HAL_Driver/Src/stm32f1xx_hal_dma.c ****   {
 578:Drivers/STM32F1xx_HAL_Driver/Src/stm32f1xx_hal_dma.c ****     /* Clear the transfer complete flag */
 579:Drivers/STM32F1xx_HAL_Driver/Src/stm32f1xx_hal_dma.c ****     __HAL_DMA_CLEAR_FLAG(hdma, __HAL_DMA_GET_TC_FLAG_INDEX(hdma));
 580:Drivers/STM32F1xx_HAL_Driver/Src/stm32f1xx_hal_dma.c **** 
 581:Drivers/STM32F1xx_HAL_Driver/Src/stm32f1xx_hal_dma.c ****     /* The selected Channelx EN bit is cleared (DMA is disabled and
 582:Drivers/STM32F1xx_HAL_Driver/Src/stm32f1xx_hal_dma.c ****     all transfers are complete) */
 583:Drivers/STM32F1xx_HAL_Driver/Src/stm32f1xx_hal_dma.c ****     hdma->State = HAL_DMA_STATE_READY;
 584:Drivers/STM32F1xx_HAL_Driver/Src/stm32f1xx_hal_dma.c ****   }
 585:Drivers/STM32F1xx_HAL_Driver/Src/stm32f1xx_hal_dma.c ****   else
 586:Drivers/STM32F1xx_HAL_Driver/Src/stm32f1xx_hal_dma.c ****   {
 587:Drivers/STM32F1xx_HAL_Driver/Src/stm32f1xx_hal_dma.c ****     /* Clear the half transfer complete flag */
 588:Drivers/STM32F1xx_HAL_Driver/Src/stm32f1xx_hal_dma.c ****     __HAL_DMA_CLEAR_FLAG(hdma, __HAL_DMA_GET_HT_FLAG_INDEX(hdma));
 589:Drivers/STM32F1xx_HAL_Driver/Src/stm32f1xx_hal_dma.c ****   }
 590:Drivers/STM32F1xx_HAL_Driver/Src/stm32f1xx_hal_dma.c ****   
 591:Drivers/STM32F1xx_HAL_Driver/Src/stm32f1xx_hal_dma.c ****   /* Process unlocked */
 592:Drivers/STM32F1xx_HAL_Driver/Src/stm32f1xx_hal_dma.c ****   __HAL_UNLOCK(hdma);
 593:Drivers/STM32F1xx_HAL_Driver/Src/stm32f1xx_hal_dma.c **** 
 594:Drivers/STM32F1xx_HAL_Driver/Src/stm32f1xx_hal_dma.c ****   return HAL_OK;
 595:Drivers/STM32F1xx_HAL_Driver/Src/stm32f1xx_hal_dma.c **** }
 596:Drivers/STM32F1xx_HAL_Driver/Src/stm32f1xx_hal_dma.c **** 
 597:Drivers/STM32F1xx_HAL_Driver/Src/stm32f1xx_hal_dma.c **** /**
 598:Drivers/STM32F1xx_HAL_Driver/Src/stm32f1xx_hal_dma.c ****   * @brief  Handles DMA interrupt request.
 599:Drivers/STM32F1xx_HAL_Driver/Src/stm32f1xx_hal_dma.c ****   * @param  hdma: pointer to a DMA_HandleTypeDef structure that contains
 600:Drivers/STM32F1xx_HAL_Driver/Src/stm32f1xx_hal_dma.c ****   *               the configuration information for the specified DMA Channel.  
 601:Drivers/STM32F1xx_HAL_Driver/Src/stm32f1xx_hal_dma.c ****   * @retval None
 602:Drivers/STM32F1xx_HAL_Driver/Src/stm32f1xx_hal_dma.c ****   */
ARM GAS  C:\Users\HARTO_~1\AppData\Local\Temp\ccO3OpW0.s 			page 12


 603:Drivers/STM32F1xx_HAL_Driver/Src/stm32f1xx_hal_dma.c **** void HAL_DMA_IRQHandler(DMA_HandleTypeDef *hdma)
 604:Drivers/STM32F1xx_HAL_Driver/Src/stm32f1xx_hal_dma.c **** {
 605:Drivers/STM32F1xx_HAL_Driver/Src/stm32f1xx_hal_dma.c ****   uint32_t flag_it = hdma->DmaBaseAddress->ISR;
 606:Drivers/STM32F1xx_HAL_Driver/Src/stm32f1xx_hal_dma.c ****   uint32_t source_it = hdma->Instance->CCR;
 607:Drivers/STM32F1xx_HAL_Driver/Src/stm32f1xx_hal_dma.c ****   
 608:Drivers/STM32F1xx_HAL_Driver/Src/stm32f1xx_hal_dma.c ****   /* Half Transfer Complete Interrupt management ******************************/
 609:Drivers/STM32F1xx_HAL_Driver/Src/stm32f1xx_hal_dma.c ****   if (((flag_it & (DMA_FLAG_HT1 << hdma->ChannelIndex)) != RESET) && ((source_it & DMA_IT_HT) != RE
 610:Drivers/STM32F1xx_HAL_Driver/Src/stm32f1xx_hal_dma.c ****   {
 611:Drivers/STM32F1xx_HAL_Driver/Src/stm32f1xx_hal_dma.c ****     /* Disable the half transfer interrupt if the DMA mode is not CIRCULAR */
 612:Drivers/STM32F1xx_HAL_Driver/Src/stm32f1xx_hal_dma.c ****     if((hdma->Instance->CCR & DMA_CCR_CIRC) == 0U)
 613:Drivers/STM32F1xx_HAL_Driver/Src/stm32f1xx_hal_dma.c ****     {
 614:Drivers/STM32F1xx_HAL_Driver/Src/stm32f1xx_hal_dma.c ****       /* Disable the half transfer interrupt */
 615:Drivers/STM32F1xx_HAL_Driver/Src/stm32f1xx_hal_dma.c ****       __HAL_DMA_DISABLE_IT(hdma, DMA_IT_HT);
 616:Drivers/STM32F1xx_HAL_Driver/Src/stm32f1xx_hal_dma.c ****     }
 617:Drivers/STM32F1xx_HAL_Driver/Src/stm32f1xx_hal_dma.c ****     /* Clear the half transfer complete flag */
 618:Drivers/STM32F1xx_HAL_Driver/Src/stm32f1xx_hal_dma.c ****     __HAL_DMA_CLEAR_FLAG(hdma, __HAL_DMA_GET_HT_FLAG_INDEX(hdma));
 619:Drivers/STM32F1xx_HAL_Driver/Src/stm32f1xx_hal_dma.c **** 
 620:Drivers/STM32F1xx_HAL_Driver/Src/stm32f1xx_hal_dma.c ****     /* DMA peripheral state is not updated in Half Transfer */
 621:Drivers/STM32F1xx_HAL_Driver/Src/stm32f1xx_hal_dma.c ****     /* but in Transfer Complete case */
 622:Drivers/STM32F1xx_HAL_Driver/Src/stm32f1xx_hal_dma.c **** 
 623:Drivers/STM32F1xx_HAL_Driver/Src/stm32f1xx_hal_dma.c ****     if(hdma->XferHalfCpltCallback != NULL)
 624:Drivers/STM32F1xx_HAL_Driver/Src/stm32f1xx_hal_dma.c ****     {
 625:Drivers/STM32F1xx_HAL_Driver/Src/stm32f1xx_hal_dma.c ****       /* Half transfer callback */
 626:Drivers/STM32F1xx_HAL_Driver/Src/stm32f1xx_hal_dma.c ****       hdma->XferHalfCpltCallback(hdma);
 627:Drivers/STM32F1xx_HAL_Driver/Src/stm32f1xx_hal_dma.c ****     }
 628:Drivers/STM32F1xx_HAL_Driver/Src/stm32f1xx_hal_dma.c ****   }
 629:Drivers/STM32F1xx_HAL_Driver/Src/stm32f1xx_hal_dma.c **** 
 630:Drivers/STM32F1xx_HAL_Driver/Src/stm32f1xx_hal_dma.c ****   /* Transfer Complete Interrupt management ***********************************/
 631:Drivers/STM32F1xx_HAL_Driver/Src/stm32f1xx_hal_dma.c ****   else if (((flag_it & (DMA_FLAG_TC1 << hdma->ChannelIndex)) != RESET) && ((source_it & DMA_IT_TC) 
 632:Drivers/STM32F1xx_HAL_Driver/Src/stm32f1xx_hal_dma.c ****   {
 633:Drivers/STM32F1xx_HAL_Driver/Src/stm32f1xx_hal_dma.c ****     if((hdma->Instance->CCR & DMA_CCR_CIRC) == 0U)
 634:Drivers/STM32F1xx_HAL_Driver/Src/stm32f1xx_hal_dma.c ****     {
 635:Drivers/STM32F1xx_HAL_Driver/Src/stm32f1xx_hal_dma.c ****       /* Disable the transfer complete and error interrupt */
 636:Drivers/STM32F1xx_HAL_Driver/Src/stm32f1xx_hal_dma.c ****       __HAL_DMA_DISABLE_IT(hdma, DMA_IT_TE | DMA_IT_TC);  
 637:Drivers/STM32F1xx_HAL_Driver/Src/stm32f1xx_hal_dma.c **** 
 638:Drivers/STM32F1xx_HAL_Driver/Src/stm32f1xx_hal_dma.c ****       /* Change the DMA state */
 639:Drivers/STM32F1xx_HAL_Driver/Src/stm32f1xx_hal_dma.c ****       hdma->State = HAL_DMA_STATE_READY;
 640:Drivers/STM32F1xx_HAL_Driver/Src/stm32f1xx_hal_dma.c ****     }
 641:Drivers/STM32F1xx_HAL_Driver/Src/stm32f1xx_hal_dma.c ****     /* Clear the transfer complete flag */
 642:Drivers/STM32F1xx_HAL_Driver/Src/stm32f1xx_hal_dma.c ****       __HAL_DMA_CLEAR_FLAG(hdma, __HAL_DMA_GET_TC_FLAG_INDEX(hdma));
 643:Drivers/STM32F1xx_HAL_Driver/Src/stm32f1xx_hal_dma.c **** 
 644:Drivers/STM32F1xx_HAL_Driver/Src/stm32f1xx_hal_dma.c ****     /* Process Unlocked */
 645:Drivers/STM32F1xx_HAL_Driver/Src/stm32f1xx_hal_dma.c ****     __HAL_UNLOCK(hdma);
 646:Drivers/STM32F1xx_HAL_Driver/Src/stm32f1xx_hal_dma.c **** 
 647:Drivers/STM32F1xx_HAL_Driver/Src/stm32f1xx_hal_dma.c ****     if(hdma->XferCpltCallback != NULL)
 648:Drivers/STM32F1xx_HAL_Driver/Src/stm32f1xx_hal_dma.c ****     {
 649:Drivers/STM32F1xx_HAL_Driver/Src/stm32f1xx_hal_dma.c ****       /* Transfer complete callback */
 650:Drivers/STM32F1xx_HAL_Driver/Src/stm32f1xx_hal_dma.c ****       hdma->XferCpltCallback(hdma);
 651:Drivers/STM32F1xx_HAL_Driver/Src/stm32f1xx_hal_dma.c ****     }
 652:Drivers/STM32F1xx_HAL_Driver/Src/stm32f1xx_hal_dma.c ****   }
 653:Drivers/STM32F1xx_HAL_Driver/Src/stm32f1xx_hal_dma.c **** 
 654:Drivers/STM32F1xx_HAL_Driver/Src/stm32f1xx_hal_dma.c ****   /* Transfer Error Interrupt management **************************************/
 655:Drivers/STM32F1xx_HAL_Driver/Src/stm32f1xx_hal_dma.c ****   else if (( RESET != (flag_it & (DMA_FLAG_TE1 << hdma->ChannelIndex))) && (RESET != (source_it & D
 656:Drivers/STM32F1xx_HAL_Driver/Src/stm32f1xx_hal_dma.c ****   {
 657:Drivers/STM32F1xx_HAL_Driver/Src/stm32f1xx_hal_dma.c ****     /* When a DMA transfer error occurs */
 658:Drivers/STM32F1xx_HAL_Driver/Src/stm32f1xx_hal_dma.c ****     /* A hardware clear of its EN bits is performed */
 659:Drivers/STM32F1xx_HAL_Driver/Src/stm32f1xx_hal_dma.c ****     /* Disable ALL DMA IT */
ARM GAS  C:\Users\HARTO_~1\AppData\Local\Temp\ccO3OpW0.s 			page 13


 660:Drivers/STM32F1xx_HAL_Driver/Src/stm32f1xx_hal_dma.c ****     __HAL_DMA_DISABLE_IT(hdma, (DMA_IT_TC | DMA_IT_HT | DMA_IT_TE));
 661:Drivers/STM32F1xx_HAL_Driver/Src/stm32f1xx_hal_dma.c **** 
 662:Drivers/STM32F1xx_HAL_Driver/Src/stm32f1xx_hal_dma.c ****     /* Clear all flags */
 663:Drivers/STM32F1xx_HAL_Driver/Src/stm32f1xx_hal_dma.c ****     hdma->DmaBaseAddress->IFCR = (DMA_ISR_GIF1 << hdma->ChannelIndex);
 664:Drivers/STM32F1xx_HAL_Driver/Src/stm32f1xx_hal_dma.c **** 
 665:Drivers/STM32F1xx_HAL_Driver/Src/stm32f1xx_hal_dma.c ****     /* Update error code */
 666:Drivers/STM32F1xx_HAL_Driver/Src/stm32f1xx_hal_dma.c ****     hdma->ErrorCode = HAL_DMA_ERROR_TE;
 667:Drivers/STM32F1xx_HAL_Driver/Src/stm32f1xx_hal_dma.c **** 
 668:Drivers/STM32F1xx_HAL_Driver/Src/stm32f1xx_hal_dma.c ****     /* Change the DMA state */
 669:Drivers/STM32F1xx_HAL_Driver/Src/stm32f1xx_hal_dma.c ****     hdma->State = HAL_DMA_STATE_READY;
 670:Drivers/STM32F1xx_HAL_Driver/Src/stm32f1xx_hal_dma.c **** 
 671:Drivers/STM32F1xx_HAL_Driver/Src/stm32f1xx_hal_dma.c ****     /* Process Unlocked */
 672:Drivers/STM32F1xx_HAL_Driver/Src/stm32f1xx_hal_dma.c ****     __HAL_UNLOCK(hdma);
 673:Drivers/STM32F1xx_HAL_Driver/Src/stm32f1xx_hal_dma.c **** 
 674:Drivers/STM32F1xx_HAL_Driver/Src/stm32f1xx_hal_dma.c ****     if (hdma->XferErrorCallback != NULL)
 675:Drivers/STM32F1xx_HAL_Driver/Src/stm32f1xx_hal_dma.c ****     {
 676:Drivers/STM32F1xx_HAL_Driver/Src/stm32f1xx_hal_dma.c ****       /* Transfer error callback */
 677:Drivers/STM32F1xx_HAL_Driver/Src/stm32f1xx_hal_dma.c ****       hdma->XferErrorCallback(hdma);
 678:Drivers/STM32F1xx_HAL_Driver/Src/stm32f1xx_hal_dma.c ****     }
 679:Drivers/STM32F1xx_HAL_Driver/Src/stm32f1xx_hal_dma.c ****   }
 680:Drivers/STM32F1xx_HAL_Driver/Src/stm32f1xx_hal_dma.c ****   return;
 681:Drivers/STM32F1xx_HAL_Driver/Src/stm32f1xx_hal_dma.c **** }
 682:Drivers/STM32F1xx_HAL_Driver/Src/stm32f1xx_hal_dma.c **** 
 683:Drivers/STM32F1xx_HAL_Driver/Src/stm32f1xx_hal_dma.c **** /**
 684:Drivers/STM32F1xx_HAL_Driver/Src/stm32f1xx_hal_dma.c ****   * @brief Register callbacks
 685:Drivers/STM32F1xx_HAL_Driver/Src/stm32f1xx_hal_dma.c ****   * @param hdma: pointer to a DMA_HandleTypeDef structure that contains
 686:Drivers/STM32F1xx_HAL_Driver/Src/stm32f1xx_hal_dma.c ****   *              the configuration information for the specified DMA Channel.
 687:Drivers/STM32F1xx_HAL_Driver/Src/stm32f1xx_hal_dma.c ****   * @param CallbackID: User Callback identifer
 688:Drivers/STM32F1xx_HAL_Driver/Src/stm32f1xx_hal_dma.c ****   *                    a HAL_DMA_CallbackIDTypeDef ENUM as parameter.
 689:Drivers/STM32F1xx_HAL_Driver/Src/stm32f1xx_hal_dma.c ****   * @param pCallback: pointer to private callbacsk function which has pointer to 
 690:Drivers/STM32F1xx_HAL_Driver/Src/stm32f1xx_hal_dma.c ****   *                   a DMA_HandleTypeDef structure as parameter.
 691:Drivers/STM32F1xx_HAL_Driver/Src/stm32f1xx_hal_dma.c ****   * @retval HAL status
 692:Drivers/STM32F1xx_HAL_Driver/Src/stm32f1xx_hal_dma.c ****   */                          
 693:Drivers/STM32F1xx_HAL_Driver/Src/stm32f1xx_hal_dma.c **** HAL_StatusTypeDef HAL_DMA_RegisterCallback(DMA_HandleTypeDef *hdma, HAL_DMA_CallbackIDTypeDef Callb
 694:Drivers/STM32F1xx_HAL_Driver/Src/stm32f1xx_hal_dma.c **** {
 695:Drivers/STM32F1xx_HAL_Driver/Src/stm32f1xx_hal_dma.c ****   HAL_StatusTypeDef status = HAL_OK;
 696:Drivers/STM32F1xx_HAL_Driver/Src/stm32f1xx_hal_dma.c ****   
 697:Drivers/STM32F1xx_HAL_Driver/Src/stm32f1xx_hal_dma.c ****   /* Process locked */
 698:Drivers/STM32F1xx_HAL_Driver/Src/stm32f1xx_hal_dma.c ****   __HAL_LOCK(hdma);
 699:Drivers/STM32F1xx_HAL_Driver/Src/stm32f1xx_hal_dma.c ****   
 700:Drivers/STM32F1xx_HAL_Driver/Src/stm32f1xx_hal_dma.c ****   if(HAL_DMA_STATE_READY == hdma->State)
 701:Drivers/STM32F1xx_HAL_Driver/Src/stm32f1xx_hal_dma.c ****   {
 702:Drivers/STM32F1xx_HAL_Driver/Src/stm32f1xx_hal_dma.c ****     switch (CallbackID)
 703:Drivers/STM32F1xx_HAL_Driver/Src/stm32f1xx_hal_dma.c ****     {
 704:Drivers/STM32F1xx_HAL_Driver/Src/stm32f1xx_hal_dma.c ****     case  HAL_DMA_XFER_CPLT_CB_ID:
 705:Drivers/STM32F1xx_HAL_Driver/Src/stm32f1xx_hal_dma.c ****       hdma->XferCpltCallback = pCallback;
 706:Drivers/STM32F1xx_HAL_Driver/Src/stm32f1xx_hal_dma.c ****       break;
 707:Drivers/STM32F1xx_HAL_Driver/Src/stm32f1xx_hal_dma.c ****       
 708:Drivers/STM32F1xx_HAL_Driver/Src/stm32f1xx_hal_dma.c ****     case  HAL_DMA_XFER_HALFCPLT_CB_ID:
 709:Drivers/STM32F1xx_HAL_Driver/Src/stm32f1xx_hal_dma.c ****       hdma->XferHalfCpltCallback = pCallback;
 710:Drivers/STM32F1xx_HAL_Driver/Src/stm32f1xx_hal_dma.c ****       break;         
 711:Drivers/STM32F1xx_HAL_Driver/Src/stm32f1xx_hal_dma.c **** 
 712:Drivers/STM32F1xx_HAL_Driver/Src/stm32f1xx_hal_dma.c ****     case  HAL_DMA_XFER_ERROR_CB_ID:
 713:Drivers/STM32F1xx_HAL_Driver/Src/stm32f1xx_hal_dma.c ****       hdma->XferErrorCallback = pCallback;
 714:Drivers/STM32F1xx_HAL_Driver/Src/stm32f1xx_hal_dma.c ****       break;         
 715:Drivers/STM32F1xx_HAL_Driver/Src/stm32f1xx_hal_dma.c ****       
 716:Drivers/STM32F1xx_HAL_Driver/Src/stm32f1xx_hal_dma.c ****     case  HAL_DMA_XFER_ABORT_CB_ID:
ARM GAS  C:\Users\HARTO_~1\AppData\Local\Temp\ccO3OpW0.s 			page 14


 717:Drivers/STM32F1xx_HAL_Driver/Src/stm32f1xx_hal_dma.c ****       hdma->XferAbortCallback = pCallback;
 718:Drivers/STM32F1xx_HAL_Driver/Src/stm32f1xx_hal_dma.c ****       break; 
 719:Drivers/STM32F1xx_HAL_Driver/Src/stm32f1xx_hal_dma.c ****       
 720:Drivers/STM32F1xx_HAL_Driver/Src/stm32f1xx_hal_dma.c ****     default:
 721:Drivers/STM32F1xx_HAL_Driver/Src/stm32f1xx_hal_dma.c ****       status = HAL_ERROR;
 722:Drivers/STM32F1xx_HAL_Driver/Src/stm32f1xx_hal_dma.c ****       break;                                                            
 723:Drivers/STM32F1xx_HAL_Driver/Src/stm32f1xx_hal_dma.c ****     }
 724:Drivers/STM32F1xx_HAL_Driver/Src/stm32f1xx_hal_dma.c ****   }
 725:Drivers/STM32F1xx_HAL_Driver/Src/stm32f1xx_hal_dma.c ****   else
 726:Drivers/STM32F1xx_HAL_Driver/Src/stm32f1xx_hal_dma.c ****   {
 727:Drivers/STM32F1xx_HAL_Driver/Src/stm32f1xx_hal_dma.c ****     status = HAL_ERROR;
 728:Drivers/STM32F1xx_HAL_Driver/Src/stm32f1xx_hal_dma.c ****   } 
 729:Drivers/STM32F1xx_HAL_Driver/Src/stm32f1xx_hal_dma.c ****   
 730:Drivers/STM32F1xx_HAL_Driver/Src/stm32f1xx_hal_dma.c ****   /* Release Lock */
 731:Drivers/STM32F1xx_HAL_Driver/Src/stm32f1xx_hal_dma.c ****   __HAL_UNLOCK(hdma);
 732:Drivers/STM32F1xx_HAL_Driver/Src/stm32f1xx_hal_dma.c ****   
 733:Drivers/STM32F1xx_HAL_Driver/Src/stm32f1xx_hal_dma.c ****   return status;
 734:Drivers/STM32F1xx_HAL_Driver/Src/stm32f1xx_hal_dma.c **** }
 735:Drivers/STM32F1xx_HAL_Driver/Src/stm32f1xx_hal_dma.c **** 
 736:Drivers/STM32F1xx_HAL_Driver/Src/stm32f1xx_hal_dma.c **** /**
 737:Drivers/STM32F1xx_HAL_Driver/Src/stm32f1xx_hal_dma.c ****   * @brief UnRegister callbacks
 738:Drivers/STM32F1xx_HAL_Driver/Src/stm32f1xx_hal_dma.c ****   * @param hdma: pointer to a DMA_HandleTypeDef structure that contains
 739:Drivers/STM32F1xx_HAL_Driver/Src/stm32f1xx_hal_dma.c ****   *              the configuration information for the specified DMA Channel.
 740:Drivers/STM32F1xx_HAL_Driver/Src/stm32f1xx_hal_dma.c ****   * @param CallbackID: User Callback identifer
 741:Drivers/STM32F1xx_HAL_Driver/Src/stm32f1xx_hal_dma.c ****   *                    a HAL_DMA_CallbackIDTypeDef ENUM as parameter.
 742:Drivers/STM32F1xx_HAL_Driver/Src/stm32f1xx_hal_dma.c ****   * @retval HAL status
 743:Drivers/STM32F1xx_HAL_Driver/Src/stm32f1xx_hal_dma.c ****   */              
 744:Drivers/STM32F1xx_HAL_Driver/Src/stm32f1xx_hal_dma.c **** HAL_StatusTypeDef HAL_DMA_UnRegisterCallback(DMA_HandleTypeDef *hdma, HAL_DMA_CallbackIDTypeDef Cal
 745:Drivers/STM32F1xx_HAL_Driver/Src/stm32f1xx_hal_dma.c **** {
 746:Drivers/STM32F1xx_HAL_Driver/Src/stm32f1xx_hal_dma.c ****   HAL_StatusTypeDef status = HAL_OK;
 747:Drivers/STM32F1xx_HAL_Driver/Src/stm32f1xx_hal_dma.c **** 
 748:Drivers/STM32F1xx_HAL_Driver/Src/stm32f1xx_hal_dma.c ****   /* Process locked */
 749:Drivers/STM32F1xx_HAL_Driver/Src/stm32f1xx_hal_dma.c ****   __HAL_LOCK(hdma);
 750:Drivers/STM32F1xx_HAL_Driver/Src/stm32f1xx_hal_dma.c ****   
 751:Drivers/STM32F1xx_HAL_Driver/Src/stm32f1xx_hal_dma.c ****   if(HAL_DMA_STATE_READY == hdma->State)
 752:Drivers/STM32F1xx_HAL_Driver/Src/stm32f1xx_hal_dma.c ****   {
 753:Drivers/STM32F1xx_HAL_Driver/Src/stm32f1xx_hal_dma.c ****     switch (CallbackID)
 754:Drivers/STM32F1xx_HAL_Driver/Src/stm32f1xx_hal_dma.c ****     {
 755:Drivers/STM32F1xx_HAL_Driver/Src/stm32f1xx_hal_dma.c ****     case  HAL_DMA_XFER_CPLT_CB_ID:
 756:Drivers/STM32F1xx_HAL_Driver/Src/stm32f1xx_hal_dma.c ****       hdma->XferCpltCallback = NULL;
 757:Drivers/STM32F1xx_HAL_Driver/Src/stm32f1xx_hal_dma.c ****       break;
 758:Drivers/STM32F1xx_HAL_Driver/Src/stm32f1xx_hal_dma.c **** 
 759:Drivers/STM32F1xx_HAL_Driver/Src/stm32f1xx_hal_dma.c ****     case  HAL_DMA_XFER_HALFCPLT_CB_ID:
 760:Drivers/STM32F1xx_HAL_Driver/Src/stm32f1xx_hal_dma.c ****       hdma->XferHalfCpltCallback = NULL;
 761:Drivers/STM32F1xx_HAL_Driver/Src/stm32f1xx_hal_dma.c ****       break;         
 762:Drivers/STM32F1xx_HAL_Driver/Src/stm32f1xx_hal_dma.c **** 
 763:Drivers/STM32F1xx_HAL_Driver/Src/stm32f1xx_hal_dma.c ****     case  HAL_DMA_XFER_ERROR_CB_ID:
 764:Drivers/STM32F1xx_HAL_Driver/Src/stm32f1xx_hal_dma.c ****       hdma->XferErrorCallback = NULL;
 765:Drivers/STM32F1xx_HAL_Driver/Src/stm32f1xx_hal_dma.c ****       break;         
 766:Drivers/STM32F1xx_HAL_Driver/Src/stm32f1xx_hal_dma.c **** 
 767:Drivers/STM32F1xx_HAL_Driver/Src/stm32f1xx_hal_dma.c ****     case  HAL_DMA_XFER_ABORT_CB_ID:
 768:Drivers/STM32F1xx_HAL_Driver/Src/stm32f1xx_hal_dma.c ****       hdma->XferAbortCallback = NULL;
 769:Drivers/STM32F1xx_HAL_Driver/Src/stm32f1xx_hal_dma.c ****       break; 
 770:Drivers/STM32F1xx_HAL_Driver/Src/stm32f1xx_hal_dma.c **** 
 771:Drivers/STM32F1xx_HAL_Driver/Src/stm32f1xx_hal_dma.c ****     case   HAL_DMA_XFER_ALL_CB_ID:
 772:Drivers/STM32F1xx_HAL_Driver/Src/stm32f1xx_hal_dma.c ****       hdma->XferCpltCallback = NULL;
 773:Drivers/STM32F1xx_HAL_Driver/Src/stm32f1xx_hal_dma.c ****       hdma->XferHalfCpltCallback = NULL;
ARM GAS  C:\Users\HARTO_~1\AppData\Local\Temp\ccO3OpW0.s 			page 15


 774:Drivers/STM32F1xx_HAL_Driver/Src/stm32f1xx_hal_dma.c ****       hdma->XferErrorCallback = NULL;
 775:Drivers/STM32F1xx_HAL_Driver/Src/stm32f1xx_hal_dma.c ****       hdma->XferAbortCallback = NULL;
 776:Drivers/STM32F1xx_HAL_Driver/Src/stm32f1xx_hal_dma.c ****       break; 
 777:Drivers/STM32F1xx_HAL_Driver/Src/stm32f1xx_hal_dma.c **** 
 778:Drivers/STM32F1xx_HAL_Driver/Src/stm32f1xx_hal_dma.c ****     default:
 779:Drivers/STM32F1xx_HAL_Driver/Src/stm32f1xx_hal_dma.c ****       status = HAL_ERROR;
 780:Drivers/STM32F1xx_HAL_Driver/Src/stm32f1xx_hal_dma.c ****       break;
 781:Drivers/STM32F1xx_HAL_Driver/Src/stm32f1xx_hal_dma.c ****     }
 782:Drivers/STM32F1xx_HAL_Driver/Src/stm32f1xx_hal_dma.c ****   }
 783:Drivers/STM32F1xx_HAL_Driver/Src/stm32f1xx_hal_dma.c ****   else
 784:Drivers/STM32F1xx_HAL_Driver/Src/stm32f1xx_hal_dma.c ****   {
 785:Drivers/STM32F1xx_HAL_Driver/Src/stm32f1xx_hal_dma.c ****     status = HAL_ERROR;
 786:Drivers/STM32F1xx_HAL_Driver/Src/stm32f1xx_hal_dma.c ****   } 
 787:Drivers/STM32F1xx_HAL_Driver/Src/stm32f1xx_hal_dma.c ****   
 788:Drivers/STM32F1xx_HAL_Driver/Src/stm32f1xx_hal_dma.c ****   /* Release Lock */
 789:Drivers/STM32F1xx_HAL_Driver/Src/stm32f1xx_hal_dma.c ****   __HAL_UNLOCK(hdma);
 790:Drivers/STM32F1xx_HAL_Driver/Src/stm32f1xx_hal_dma.c ****   
 791:Drivers/STM32F1xx_HAL_Driver/Src/stm32f1xx_hal_dma.c ****   return status;
 792:Drivers/STM32F1xx_HAL_Driver/Src/stm32f1xx_hal_dma.c **** }
 793:Drivers/STM32F1xx_HAL_Driver/Src/stm32f1xx_hal_dma.c ****   
 794:Drivers/STM32F1xx_HAL_Driver/Src/stm32f1xx_hal_dma.c **** /**
 795:Drivers/STM32F1xx_HAL_Driver/Src/stm32f1xx_hal_dma.c ****   * @}
 796:Drivers/STM32F1xx_HAL_Driver/Src/stm32f1xx_hal_dma.c ****   */
 797:Drivers/STM32F1xx_HAL_Driver/Src/stm32f1xx_hal_dma.c **** 
 798:Drivers/STM32F1xx_HAL_Driver/Src/stm32f1xx_hal_dma.c **** /** @defgroup DMA_Exported_Functions_Group3 Peripheral State and Errors functions
 799:Drivers/STM32F1xx_HAL_Driver/Src/stm32f1xx_hal_dma.c ****   *  @brief    Peripheral State and Errors functions
 800:Drivers/STM32F1xx_HAL_Driver/Src/stm32f1xx_hal_dma.c ****   *
 801:Drivers/STM32F1xx_HAL_Driver/Src/stm32f1xx_hal_dma.c **** @verbatim
 802:Drivers/STM32F1xx_HAL_Driver/Src/stm32f1xx_hal_dma.c ****  ===============================================================================
 803:Drivers/STM32F1xx_HAL_Driver/Src/stm32f1xx_hal_dma.c ****             ##### Peripheral State and Errors functions #####
 804:Drivers/STM32F1xx_HAL_Driver/Src/stm32f1xx_hal_dma.c ****  ===============================================================================  
 805:Drivers/STM32F1xx_HAL_Driver/Src/stm32f1xx_hal_dma.c ****     [..]
 806:Drivers/STM32F1xx_HAL_Driver/Src/stm32f1xx_hal_dma.c ****     This subsection provides functions allowing to
 807:Drivers/STM32F1xx_HAL_Driver/Src/stm32f1xx_hal_dma.c ****       (+) Check the DMA state
 808:Drivers/STM32F1xx_HAL_Driver/Src/stm32f1xx_hal_dma.c ****       (+) Get error code
 809:Drivers/STM32F1xx_HAL_Driver/Src/stm32f1xx_hal_dma.c **** 
 810:Drivers/STM32F1xx_HAL_Driver/Src/stm32f1xx_hal_dma.c **** @endverbatim
 811:Drivers/STM32F1xx_HAL_Driver/Src/stm32f1xx_hal_dma.c ****   * @{
 812:Drivers/STM32F1xx_HAL_Driver/Src/stm32f1xx_hal_dma.c ****   */
 813:Drivers/STM32F1xx_HAL_Driver/Src/stm32f1xx_hal_dma.c **** 
 814:Drivers/STM32F1xx_HAL_Driver/Src/stm32f1xx_hal_dma.c **** /**
 815:Drivers/STM32F1xx_HAL_Driver/Src/stm32f1xx_hal_dma.c ****   * @brief  Return the DMA hande state.
 816:Drivers/STM32F1xx_HAL_Driver/Src/stm32f1xx_hal_dma.c ****   * @param  hdma: pointer to a DMA_HandleTypeDef structure that contains
 817:Drivers/STM32F1xx_HAL_Driver/Src/stm32f1xx_hal_dma.c ****   *               the configuration information for the specified DMA Channel.
 818:Drivers/STM32F1xx_HAL_Driver/Src/stm32f1xx_hal_dma.c ****   * @retval HAL state
 819:Drivers/STM32F1xx_HAL_Driver/Src/stm32f1xx_hal_dma.c ****   */
 820:Drivers/STM32F1xx_HAL_Driver/Src/stm32f1xx_hal_dma.c **** HAL_DMA_StateTypeDef HAL_DMA_GetState(DMA_HandleTypeDef *hdma)
 821:Drivers/STM32F1xx_HAL_Driver/Src/stm32f1xx_hal_dma.c **** {
 822:Drivers/STM32F1xx_HAL_Driver/Src/stm32f1xx_hal_dma.c ****   /* Return DMA handle state */
 823:Drivers/STM32F1xx_HAL_Driver/Src/stm32f1xx_hal_dma.c ****   return hdma->State;
 824:Drivers/STM32F1xx_HAL_Driver/Src/stm32f1xx_hal_dma.c **** }
 825:Drivers/STM32F1xx_HAL_Driver/Src/stm32f1xx_hal_dma.c **** 
 826:Drivers/STM32F1xx_HAL_Driver/Src/stm32f1xx_hal_dma.c **** /**
 827:Drivers/STM32F1xx_HAL_Driver/Src/stm32f1xx_hal_dma.c ****   * @brief  Return the DMA error code.
 828:Drivers/STM32F1xx_HAL_Driver/Src/stm32f1xx_hal_dma.c ****   * @param  hdma : pointer to a DMA_HandleTypeDef structure that contains
 829:Drivers/STM32F1xx_HAL_Driver/Src/stm32f1xx_hal_dma.c ****   *              the configuration information for the specified DMA Channel.
 830:Drivers/STM32F1xx_HAL_Driver/Src/stm32f1xx_hal_dma.c ****   * @retval DMA Error Code
ARM GAS  C:\Users\HARTO_~1\AppData\Local\Temp\ccO3OpW0.s 			page 16


 831:Drivers/STM32F1xx_HAL_Driver/Src/stm32f1xx_hal_dma.c ****   */
 832:Drivers/STM32F1xx_HAL_Driver/Src/stm32f1xx_hal_dma.c **** uint32_t HAL_DMA_GetError(DMA_HandleTypeDef *hdma)
 833:Drivers/STM32F1xx_HAL_Driver/Src/stm32f1xx_hal_dma.c **** {
 834:Drivers/STM32F1xx_HAL_Driver/Src/stm32f1xx_hal_dma.c ****   return hdma->ErrorCode;
 835:Drivers/STM32F1xx_HAL_Driver/Src/stm32f1xx_hal_dma.c **** }
 836:Drivers/STM32F1xx_HAL_Driver/Src/stm32f1xx_hal_dma.c **** 
 837:Drivers/STM32F1xx_HAL_Driver/Src/stm32f1xx_hal_dma.c **** /**
 838:Drivers/STM32F1xx_HAL_Driver/Src/stm32f1xx_hal_dma.c ****   * @}
 839:Drivers/STM32F1xx_HAL_Driver/Src/stm32f1xx_hal_dma.c ****   */
 840:Drivers/STM32F1xx_HAL_Driver/Src/stm32f1xx_hal_dma.c **** 
 841:Drivers/STM32F1xx_HAL_Driver/Src/stm32f1xx_hal_dma.c **** /**
 842:Drivers/STM32F1xx_HAL_Driver/Src/stm32f1xx_hal_dma.c ****   * @}
 843:Drivers/STM32F1xx_HAL_Driver/Src/stm32f1xx_hal_dma.c ****   */
 844:Drivers/STM32F1xx_HAL_Driver/Src/stm32f1xx_hal_dma.c **** 
 845:Drivers/STM32F1xx_HAL_Driver/Src/stm32f1xx_hal_dma.c **** /** @addtogroup DMA_Private_Functions
 846:Drivers/STM32F1xx_HAL_Driver/Src/stm32f1xx_hal_dma.c ****   * @{
 847:Drivers/STM32F1xx_HAL_Driver/Src/stm32f1xx_hal_dma.c ****   */
 848:Drivers/STM32F1xx_HAL_Driver/Src/stm32f1xx_hal_dma.c **** 
 849:Drivers/STM32F1xx_HAL_Driver/Src/stm32f1xx_hal_dma.c **** /**
 850:Drivers/STM32F1xx_HAL_Driver/Src/stm32f1xx_hal_dma.c ****   * @brief  Sets the DMA Transfer parameter.
 851:Drivers/STM32F1xx_HAL_Driver/Src/stm32f1xx_hal_dma.c ****   * @param  hdma:       pointer to a DMA_HandleTypeDef structure that contains
 852:Drivers/STM32F1xx_HAL_Driver/Src/stm32f1xx_hal_dma.c ****   *                     the configuration information for the specified DMA Channel.
 853:Drivers/STM32F1xx_HAL_Driver/Src/stm32f1xx_hal_dma.c ****   * @param  SrcAddress: The source memory Buffer address
 854:Drivers/STM32F1xx_HAL_Driver/Src/stm32f1xx_hal_dma.c ****   * @param  DstAddress: The destination memory Buffer address
 855:Drivers/STM32F1xx_HAL_Driver/Src/stm32f1xx_hal_dma.c ****   * @param  DataLength: The length of data to be transferred from source to destination
 856:Drivers/STM32F1xx_HAL_Driver/Src/stm32f1xx_hal_dma.c ****   * @retval HAL status
 857:Drivers/STM32F1xx_HAL_Driver/Src/stm32f1xx_hal_dma.c ****   */
 858:Drivers/STM32F1xx_HAL_Driver/Src/stm32f1xx_hal_dma.c **** static void DMA_SetConfig(DMA_HandleTypeDef *hdma, uint32_t SrcAddress, uint32_t DstAddress, uint32
 859:Drivers/STM32F1xx_HAL_Driver/Src/stm32f1xx_hal_dma.c **** {
  27              		.loc 1 859 1 view -0
  28              		.cfi_startproc
  29              		@ args = 0, pretend = 0, frame = 0
  30              		@ frame_needed = 0, uses_anonymous_args = 0
  31              		@ link register save eliminated.
  32              		.loc 1 859 1 is_stmt 0 view .LVU1
  33 0000 70B4     		push	{r4, r5, r6}
  34              	.LCFI0:
  35              		.cfi_def_cfa_offset 12
  36              		.cfi_offset 4, -12
  37              		.cfi_offset 5, -8
  38              		.cfi_offset 6, -4
 860:Drivers/STM32F1xx_HAL_Driver/Src/stm32f1xx_hal_dma.c ****   /* Clear all flags */
 861:Drivers/STM32F1xx_HAL_Driver/Src/stm32f1xx_hal_dma.c ****   hdma->DmaBaseAddress->IFCR = (DMA_ISR_GIF1 << hdma->ChannelIndex);
  39              		.loc 1 861 3 is_stmt 1 view .LVU2
  40              		.loc 1 861 53 is_stmt 0 view .LVU3
  41 0002 066C     		ldr	r6, [r0, #64]
  42              		.loc 1 861 7 view .LVU4
  43 0004 C56B     		ldr	r5, [r0, #60]
  44              		.loc 1 861 46 view .LVU5
  45 0006 0124     		movs	r4, #1
  46 0008 B440     		lsls	r4, r4, r6
  47              		.loc 1 861 30 view .LVU6
  48 000a 6C60     		str	r4, [r5, #4]
 862:Drivers/STM32F1xx_HAL_Driver/Src/stm32f1xx_hal_dma.c **** 
 863:Drivers/STM32F1xx_HAL_Driver/Src/stm32f1xx_hal_dma.c ****   /* Configure DMA Channel data length */
 864:Drivers/STM32F1xx_HAL_Driver/Src/stm32f1xx_hal_dma.c ****   hdma->Instance->CNDTR = DataLength;
  49              		.loc 1 864 3 is_stmt 1 view .LVU7
ARM GAS  C:\Users\HARTO_~1\AppData\Local\Temp\ccO3OpW0.s 			page 17


  50              		.loc 1 864 7 is_stmt 0 view .LVU8
  51 000c 0468     		ldr	r4, [r0]
  52              		.loc 1 864 25 view .LVU9
  53 000e 6360     		str	r3, [r4, #4]
 865:Drivers/STM32F1xx_HAL_Driver/Src/stm32f1xx_hal_dma.c **** 
 866:Drivers/STM32F1xx_HAL_Driver/Src/stm32f1xx_hal_dma.c ****   /* Memory to Peripheral */
 867:Drivers/STM32F1xx_HAL_Driver/Src/stm32f1xx_hal_dma.c ****   if((hdma->Init.Direction) == DMA_MEMORY_TO_PERIPH)
  54              		.loc 1 867 3 is_stmt 1 view .LVU10
  55              		.loc 1 867 17 is_stmt 0 view .LVU11
  56 0010 4368     		ldr	r3, [r0, #4]
  57              	.LVL1:
  58              		.loc 1 867 5 view .LVU12
  59 0012 102B     		cmp	r3, #16
  60 0014 05D0     		beq	.L5
 868:Drivers/STM32F1xx_HAL_Driver/Src/stm32f1xx_hal_dma.c ****   {
 869:Drivers/STM32F1xx_HAL_Driver/Src/stm32f1xx_hal_dma.c ****     /* Configure DMA Channel destination address */
 870:Drivers/STM32F1xx_HAL_Driver/Src/stm32f1xx_hal_dma.c ****     hdma->Instance->CPAR = DstAddress;
 871:Drivers/STM32F1xx_HAL_Driver/Src/stm32f1xx_hal_dma.c **** 
 872:Drivers/STM32F1xx_HAL_Driver/Src/stm32f1xx_hal_dma.c ****     /* Configure DMA Channel source address */
 873:Drivers/STM32F1xx_HAL_Driver/Src/stm32f1xx_hal_dma.c ****     hdma->Instance->CMAR = SrcAddress;
 874:Drivers/STM32F1xx_HAL_Driver/Src/stm32f1xx_hal_dma.c ****   }
 875:Drivers/STM32F1xx_HAL_Driver/Src/stm32f1xx_hal_dma.c ****   /* Peripheral to Memory */
 876:Drivers/STM32F1xx_HAL_Driver/Src/stm32f1xx_hal_dma.c ****   else
 877:Drivers/STM32F1xx_HAL_Driver/Src/stm32f1xx_hal_dma.c ****   {
 878:Drivers/STM32F1xx_HAL_Driver/Src/stm32f1xx_hal_dma.c ****     /* Configure DMA Channel source address */
 879:Drivers/STM32F1xx_HAL_Driver/Src/stm32f1xx_hal_dma.c ****     hdma->Instance->CPAR = SrcAddress;
  61              		.loc 1 879 5 is_stmt 1 view .LVU13
  62              		.loc 1 879 9 is_stmt 0 view .LVU14
  63 0016 0368     		ldr	r3, [r0]
  64              		.loc 1 879 26 view .LVU15
  65 0018 9960     		str	r1, [r3, #8]
  66              	.LVL2:
 880:Drivers/STM32F1xx_HAL_Driver/Src/stm32f1xx_hal_dma.c **** 
 881:Drivers/STM32F1xx_HAL_Driver/Src/stm32f1xx_hal_dma.c ****     /* Configure DMA Channel destination address */
 882:Drivers/STM32F1xx_HAL_Driver/Src/stm32f1xx_hal_dma.c ****     hdma->Instance->CMAR = DstAddress;
  67              		.loc 1 882 5 is_stmt 1 view .LVU16
  68              		.loc 1 882 9 is_stmt 0 view .LVU17
  69 001a 0368     		ldr	r3, [r0]
  70              		.loc 1 882 26 view .LVU18
  71 001c DA60     		str	r2, [r3, #12]
  72              	.L1:
 883:Drivers/STM32F1xx_HAL_Driver/Src/stm32f1xx_hal_dma.c ****   }
 884:Drivers/STM32F1xx_HAL_Driver/Src/stm32f1xx_hal_dma.c **** }
  73              		.loc 1 884 1 view .LVU19
  74 001e 70BC     		pop	{r4, r5, r6}
  75              	.LCFI1:
  76              		.cfi_remember_state
  77              		.cfi_restore 6
  78              		.cfi_restore 5
  79              		.cfi_restore 4
  80              		.cfi_def_cfa_offset 0
  81 0020 7047     		bx	lr
  82              	.LVL3:
  83              	.L5:
  84              	.LCFI2:
  85              		.cfi_restore_state
 870:Drivers/STM32F1xx_HAL_Driver/Src/stm32f1xx_hal_dma.c **** 
ARM GAS  C:\Users\HARTO_~1\AppData\Local\Temp\ccO3OpW0.s 			page 18


  86              		.loc 1 870 5 is_stmt 1 view .LVU20
 870:Drivers/STM32F1xx_HAL_Driver/Src/stm32f1xx_hal_dma.c **** 
  87              		.loc 1 870 9 is_stmt 0 view .LVU21
  88 0022 0368     		ldr	r3, [r0]
 870:Drivers/STM32F1xx_HAL_Driver/Src/stm32f1xx_hal_dma.c **** 
  89              		.loc 1 870 26 view .LVU22
  90 0024 9A60     		str	r2, [r3, #8]
  91              	.LVL4:
 873:Drivers/STM32F1xx_HAL_Driver/Src/stm32f1xx_hal_dma.c ****   }
  92              		.loc 1 873 5 is_stmt 1 view .LVU23
 873:Drivers/STM32F1xx_HAL_Driver/Src/stm32f1xx_hal_dma.c ****   }
  93              		.loc 1 873 9 is_stmt 0 view .LVU24
  94 0026 0368     		ldr	r3, [r0]
 873:Drivers/STM32F1xx_HAL_Driver/Src/stm32f1xx_hal_dma.c ****   }
  95              		.loc 1 873 26 view .LVU25
  96 0028 D960     		str	r1, [r3, #12]
  97 002a F8E7     		b	.L1
  98              		.cfi_endproc
  99              	.LFE77:
 101              		.section	.text.HAL_DMA_Init,"ax",%progbits
 102              		.align	1
 103              		.global	HAL_DMA_Init
 104              		.syntax unified
 105              		.thumb
 106              		.thumb_func
 107              		.fpu softvfp
 109              	HAL_DMA_Init:
 110              	.LVL5:
 111              	.LFB65:
 144:Drivers/STM32F1xx_HAL_Driver/Src/stm32f1xx_hal_dma.c ****   uint32_t tmp = 0U;
 112              		.loc 1 144 1 is_stmt 1 view -0
 113              		.cfi_startproc
 114              		@ args = 0, pretend = 0, frame = 0
 115              		@ frame_needed = 0, uses_anonymous_args = 0
 116              		@ link register save eliminated.
 145:Drivers/STM32F1xx_HAL_Driver/Src/stm32f1xx_hal_dma.c **** 
 117              		.loc 1 145 3 view .LVU27
 148:Drivers/STM32F1xx_HAL_Driver/Src/stm32f1xx_hal_dma.c ****   {
 118              		.loc 1 148 3 view .LVU28
 148:Drivers/STM32F1xx_HAL_Driver/Src/stm32f1xx_hal_dma.c ****   {
 119              		.loc 1 148 5 is_stmt 0 view .LVU29
 120 0000 0028     		cmp	r0, #0
 121 0002 3AD0     		beq	.L10
 144:Drivers/STM32F1xx_HAL_Driver/Src/stm32f1xx_hal_dma.c ****   uint32_t tmp = 0U;
 122              		.loc 1 144 1 view .LVU30
 123 0004 10B4     		push	{r4}
 124              	.LCFI3:
 125              		.cfi_def_cfa_offset 4
 126              		.cfi_offset 4, -4
 127 0006 0246     		mov	r2, r0
 154:Drivers/STM32F1xx_HAL_Driver/Src/stm32f1xx_hal_dma.c ****   assert_param(IS_DMA_DIRECTION(hdma->Init.Direction));
 128              		.loc 1 154 3 is_stmt 1 view .LVU31
 155:Drivers/STM32F1xx_HAL_Driver/Src/stm32f1xx_hal_dma.c ****   assert_param(IS_DMA_PERIPHERAL_INC_STATE(hdma->Init.PeriphInc));
 129              		.loc 1 155 3 view .LVU32
 156:Drivers/STM32F1xx_HAL_Driver/Src/stm32f1xx_hal_dma.c ****   assert_param(IS_DMA_MEMORY_INC_STATE(hdma->Init.MemInc));
 130              		.loc 1 156 3 view .LVU33
 157:Drivers/STM32F1xx_HAL_Driver/Src/stm32f1xx_hal_dma.c ****   assert_param(IS_DMA_PERIPHERAL_DATA_SIZE(hdma->Init.PeriphDataAlignment));
ARM GAS  C:\Users\HARTO_~1\AppData\Local\Temp\ccO3OpW0.s 			page 19


 131              		.loc 1 157 3 view .LVU34
 158:Drivers/STM32F1xx_HAL_Driver/Src/stm32f1xx_hal_dma.c ****   assert_param(IS_DMA_MEMORY_DATA_SIZE(hdma->Init.MemDataAlignment));
 132              		.loc 1 158 3 view .LVU35
 159:Drivers/STM32F1xx_HAL_Driver/Src/stm32f1xx_hal_dma.c ****   assert_param(IS_DMA_MODE(hdma->Init.Mode));
 133              		.loc 1 159 3 view .LVU36
 160:Drivers/STM32F1xx_HAL_Driver/Src/stm32f1xx_hal_dma.c ****   assert_param(IS_DMA_PRIORITY(hdma->Init.Priority));
 134              		.loc 1 160 3 view .LVU37
 161:Drivers/STM32F1xx_HAL_Driver/Src/stm32f1xx_hal_dma.c **** 
 135              		.loc 1 161 3 view .LVU38
 165:Drivers/STM32F1xx_HAL_Driver/Src/stm32f1xx_hal_dma.c ****   {
 136              		.loc 1 165 3 view .LVU39
 165:Drivers/STM32F1xx_HAL_Driver/Src/stm32f1xx_hal_dma.c ****   {
 137              		.loc 1 165 22 is_stmt 0 view .LVU40
 138 0008 0068     		ldr	r0, [r0]
 139              	.LVL6:
 165:Drivers/STM32F1xx_HAL_Driver/Src/stm32f1xx_hal_dma.c ****   {
 140              		.loc 1 165 6 view .LVU41
 141 000a 1D4B     		ldr	r3, .L15
 142 000c 9842     		cmp	r0, r3
 143 000e 29D8     		bhi	.L8
 168:Drivers/STM32F1xx_HAL_Driver/Src/stm32f1xx_hal_dma.c ****     hdma->DmaBaseAddress = DMA1;
 144              		.loc 1 168 5 is_stmt 1 view .LVU42
 168:Drivers/STM32F1xx_HAL_Driver/Src/stm32f1xx_hal_dma.c ****     hdma->DmaBaseAddress = DMA1;
 145              		.loc 1 168 53 is_stmt 0 view .LVU43
 146 0010 1C4B     		ldr	r3, .L15+4
 147 0012 0344     		add	r3, r3, r0
 168:Drivers/STM32F1xx_HAL_Driver/Src/stm32f1xx_hal_dma.c ****     hdma->DmaBaseAddress = DMA1;
 148              		.loc 1 168 80 view .LVU44
 149 0014 1C49     		ldr	r1, .L15+8
 150 0016 A1FB0313 		umull	r1, r3, r1, r3
 151 001a 1B09     		lsrs	r3, r3, #4
 168:Drivers/STM32F1xx_HAL_Driver/Src/stm32f1xx_hal_dma.c ****     hdma->DmaBaseAddress = DMA1;
 152              		.loc 1 168 135 view .LVU45
 153 001c 9B00     		lsls	r3, r3, #2
 168:Drivers/STM32F1xx_HAL_Driver/Src/stm32f1xx_hal_dma.c ****     hdma->DmaBaseAddress = DMA1;
 154              		.loc 1 168 24 view .LVU46
 155 001e 1364     		str	r3, [r2, #64]
 169:Drivers/STM32F1xx_HAL_Driver/Src/stm32f1xx_hal_dma.c ****   }
 156              		.loc 1 169 5 is_stmt 1 view .LVU47
 169:Drivers/STM32F1xx_HAL_Driver/Src/stm32f1xx_hal_dma.c ****   }
 157              		.loc 1 169 26 is_stmt 0 view .LVU48
 158 0020 1A4B     		ldr	r3, .L15+12
 159 0022 D363     		str	r3, [r2, #60]
 160              	.L9:
 184:Drivers/STM32F1xx_HAL_Driver/Src/stm32f1xx_hal_dma.c **** 
 161              		.loc 1 184 3 is_stmt 1 view .LVU49
 184:Drivers/STM32F1xx_HAL_Driver/Src/stm32f1xx_hal_dma.c **** 
 162              		.loc 1 184 15 is_stmt 0 view .LVU50
 163 0024 0223     		movs	r3, #2
 164 0026 82F82130 		strb	r3, [r2, #33]
 187:Drivers/STM32F1xx_HAL_Driver/Src/stm32f1xx_hal_dma.c **** 
 165              		.loc 1 187 3 is_stmt 1 view .LVU51
 187:Drivers/STM32F1xx_HAL_Driver/Src/stm32f1xx_hal_dma.c **** 
 166              		.loc 1 187 7 is_stmt 0 view .LVU52
 167 002a 0168     		ldr	r1, [r0]
 168              	.LVL7:
 190:Drivers/STM32F1xx_HAL_Driver/Src/stm32f1xx_hal_dma.c ****                       DMA_CCR_MINC  | DMA_CCR_PINC   | DMA_CCR_CIRC   | \
ARM GAS  C:\Users\HARTO_~1\AppData\Local\Temp\ccO3OpW0.s 			page 20


 169              		.loc 1 190 3 is_stmt 1 view .LVU53
 190:Drivers/STM32F1xx_HAL_Driver/Src/stm32f1xx_hal_dma.c ****                       DMA_CCR_MINC  | DMA_CCR_PINC   | DMA_CCR_CIRC   | \
 170              		.loc 1 190 7 is_stmt 0 view .LVU54
 171 002c 21F47F51 		bic	r1, r1, #16320
 172              	.LVL8:
 190:Drivers/STM32F1xx_HAL_Driver/Src/stm32f1xx_hal_dma.c ****                       DMA_CCR_MINC  | DMA_CCR_PINC   | DMA_CCR_CIRC   | \
 173              		.loc 1 190 7 view .LVU55
 174 0030 21F03001 		bic	r1, r1, #48
 175              	.LVL9:
 195:Drivers/STM32F1xx_HAL_Driver/Src/stm32f1xx_hal_dma.c ****           hdma->Init.PeriphInc           | hdma->Init.MemInc           |
 176              		.loc 1 195 3 is_stmt 1 view .LVU56
 195:Drivers/STM32F1xx_HAL_Driver/Src/stm32f1xx_hal_dma.c ****           hdma->Init.PeriphInc           | hdma->Init.MemInc           |
 177              		.loc 1 195 21 is_stmt 0 view .LVU57
 178 0034 5368     		ldr	r3, [r2, #4]
 196:Drivers/STM32F1xx_HAL_Driver/Src/stm32f1xx_hal_dma.c ****           hdma->Init.PeriphDataAlignment | hdma->Init.MemDataAlignment |
 179              		.loc 1 196 21 view .LVU58
 180 0036 9468     		ldr	r4, [r2, #8]
 195:Drivers/STM32F1xx_HAL_Driver/Src/stm32f1xx_hal_dma.c ****           hdma->Init.PeriphInc           | hdma->Init.MemInc           |
 181              		.loc 1 195 39 view .LVU59
 182 0038 2343     		orrs	r3, r3, r4
 196:Drivers/STM32F1xx_HAL_Driver/Src/stm32f1xx_hal_dma.c ****           hdma->Init.PeriphDataAlignment | hdma->Init.MemDataAlignment |
 183              		.loc 1 196 54 view .LVU60
 184 003a D468     		ldr	r4, [r2, #12]
 196:Drivers/STM32F1xx_HAL_Driver/Src/stm32f1xx_hal_dma.c ****           hdma->Init.PeriphDataAlignment | hdma->Init.MemDataAlignment |
 185              		.loc 1 196 42 view .LVU61
 186 003c 2343     		orrs	r3, r3, r4
 197:Drivers/STM32F1xx_HAL_Driver/Src/stm32f1xx_hal_dma.c ****           hdma->Init.Mode                | hdma->Init.Priority;
 187              		.loc 1 197 21 view .LVU62
 188 003e 1469     		ldr	r4, [r2, #16]
 196:Drivers/STM32F1xx_HAL_Driver/Src/stm32f1xx_hal_dma.c ****           hdma->Init.PeriphDataAlignment | hdma->Init.MemDataAlignment |
 189              		.loc 1 196 72 view .LVU63
 190 0040 2343     		orrs	r3, r3, r4
 197:Drivers/STM32F1xx_HAL_Driver/Src/stm32f1xx_hal_dma.c ****           hdma->Init.Mode                | hdma->Init.Priority;
 191              		.loc 1 197 54 view .LVU64
 192 0042 5469     		ldr	r4, [r2, #20]
 197:Drivers/STM32F1xx_HAL_Driver/Src/stm32f1xx_hal_dma.c ****           hdma->Init.Mode                | hdma->Init.Priority;
 193              		.loc 1 197 42 view .LVU65
 194 0044 2343     		orrs	r3, r3, r4
 198:Drivers/STM32F1xx_HAL_Driver/Src/stm32f1xx_hal_dma.c **** 
 195              		.loc 1 198 21 view .LVU66
 196 0046 9469     		ldr	r4, [r2, #24]
 197:Drivers/STM32F1xx_HAL_Driver/Src/stm32f1xx_hal_dma.c ****           hdma->Init.Mode                | hdma->Init.Priority;
 197              		.loc 1 197 72 view .LVU67
 198 0048 2343     		orrs	r3, r3, r4
 198:Drivers/STM32F1xx_HAL_Driver/Src/stm32f1xx_hal_dma.c **** 
 199              		.loc 1 198 54 view .LVU68
 200 004a D469     		ldr	r4, [r2, #28]
 198:Drivers/STM32F1xx_HAL_Driver/Src/stm32f1xx_hal_dma.c **** 
 201              		.loc 1 198 42 view .LVU69
 202 004c 2343     		orrs	r3, r3, r4
 195:Drivers/STM32F1xx_HAL_Driver/Src/stm32f1xx_hal_dma.c ****           hdma->Init.PeriphInc           | hdma->Init.MemInc           |
 203              		.loc 1 195 7 view .LVU70
 204 004e 0B43     		orrs	r3, r3, r1
 205              	.LVL10:
 201:Drivers/STM32F1xx_HAL_Driver/Src/stm32f1xx_hal_dma.c **** 
 206              		.loc 1 201 3 is_stmt 1 view .LVU71
 201:Drivers/STM32F1xx_HAL_Driver/Src/stm32f1xx_hal_dma.c **** 
ARM GAS  C:\Users\HARTO_~1\AppData\Local\Temp\ccO3OpW0.s 			page 21


 207              		.loc 1 201 23 is_stmt 0 view .LVU72
 208 0050 0360     		str	r3, [r0]
 204:Drivers/STM32F1xx_HAL_Driver/Src/stm32f1xx_hal_dma.c **** 
 209              		.loc 1 204 3 is_stmt 1 view .LVU73
 204:Drivers/STM32F1xx_HAL_Driver/Src/stm32f1xx_hal_dma.c **** 
 210              		.loc 1 204 19 is_stmt 0 view .LVU74
 211 0052 0020     		movs	r0, #0
 212 0054 9063     		str	r0, [r2, #56]
 207:Drivers/STM32F1xx_HAL_Driver/Src/stm32f1xx_hal_dma.c ****   /* Allocate lock resource and initialize it */
 213              		.loc 1 207 3 is_stmt 1 view .LVU75
 207:Drivers/STM32F1xx_HAL_Driver/Src/stm32f1xx_hal_dma.c ****   /* Allocate lock resource and initialize it */
 214              		.loc 1 207 15 is_stmt 0 view .LVU76
 215 0056 0123     		movs	r3, #1
 216              	.LVL11:
 207:Drivers/STM32F1xx_HAL_Driver/Src/stm32f1xx_hal_dma.c ****   /* Allocate lock resource and initialize it */
 217              		.loc 1 207 15 view .LVU77
 218 0058 82F82130 		strb	r3, [r2, #33]
 209:Drivers/STM32F1xx_HAL_Driver/Src/stm32f1xx_hal_dma.c **** 
 219              		.loc 1 209 3 is_stmt 1 view .LVU78
 209:Drivers/STM32F1xx_HAL_Driver/Src/stm32f1xx_hal_dma.c **** 
 220              		.loc 1 209 14 is_stmt 0 view .LVU79
 221 005c 82F82000 		strb	r0, [r2, #32]
 211:Drivers/STM32F1xx_HAL_Driver/Src/stm32f1xx_hal_dma.c **** }
 222              		.loc 1 211 3 is_stmt 1 view .LVU80
 212:Drivers/STM32F1xx_HAL_Driver/Src/stm32f1xx_hal_dma.c **** 
 223              		.loc 1 212 1 is_stmt 0 view .LVU81
 224 0060 10BC     		pop	{r4}
 225              	.LCFI4:
 226              		.cfi_remember_state
 227              		.cfi_restore 4
 228              		.cfi_def_cfa_offset 0
 229 0062 7047     		bx	lr
 230              	.LVL12:
 231              	.L8:
 232              	.LCFI5:
 233              		.cfi_restore_state
 174:Drivers/STM32F1xx_HAL_Driver/Src/stm32f1xx_hal_dma.c ****     hdma->DmaBaseAddress = DMA2;
 234              		.loc 1 174 5 is_stmt 1 view .LVU82
 174:Drivers/STM32F1xx_HAL_Driver/Src/stm32f1xx_hal_dma.c ****     hdma->DmaBaseAddress = DMA2;
 235              		.loc 1 174 53 is_stmt 0 view .LVU83
 236 0064 0A4B     		ldr	r3, .L15+16
 237 0066 0344     		add	r3, r3, r0
 174:Drivers/STM32F1xx_HAL_Driver/Src/stm32f1xx_hal_dma.c ****     hdma->DmaBaseAddress = DMA2;
 238              		.loc 1 174 80 view .LVU84
 239 0068 0749     		ldr	r1, .L15+8
 240 006a A1FB0313 		umull	r1, r3, r1, r3
 241 006e 1B09     		lsrs	r3, r3, #4
 174:Drivers/STM32F1xx_HAL_Driver/Src/stm32f1xx_hal_dma.c ****     hdma->DmaBaseAddress = DMA2;
 242              		.loc 1 174 135 view .LVU85
 243 0070 9B00     		lsls	r3, r3, #2
 174:Drivers/STM32F1xx_HAL_Driver/Src/stm32f1xx_hal_dma.c ****     hdma->DmaBaseAddress = DMA2;
 244              		.loc 1 174 24 view .LVU86
 245 0072 1364     		str	r3, [r2, #64]
 175:Drivers/STM32F1xx_HAL_Driver/Src/stm32f1xx_hal_dma.c ****   }
 246              		.loc 1 175 5 is_stmt 1 view .LVU87
 175:Drivers/STM32F1xx_HAL_Driver/Src/stm32f1xx_hal_dma.c ****   }
 247              		.loc 1 175 26 is_stmt 0 view .LVU88
ARM GAS  C:\Users\HARTO_~1\AppData\Local\Temp\ccO3OpW0.s 			page 22


 248 0074 074B     		ldr	r3, .L15+20
 249 0076 D363     		str	r3, [r2, #60]
 250 0078 D4E7     		b	.L9
 251              	.LVL13:
 252              	.L10:
 253              	.LCFI6:
 254              		.cfi_def_cfa_offset 0
 255              		.cfi_restore 4
 150:Drivers/STM32F1xx_HAL_Driver/Src/stm32f1xx_hal_dma.c ****   }
 256              		.loc 1 150 12 view .LVU89
 257 007a 0120     		movs	r0, #1
 258              	.LVL14:
 212:Drivers/STM32F1xx_HAL_Driver/Src/stm32f1xx_hal_dma.c **** 
 259              		.loc 1 212 1 view .LVU90
 260 007c 7047     		bx	lr
 261              	.L16:
 262 007e 00BF     		.align	2
 263              	.L15:
 264 0080 07040240 		.word	1073873927
 265 0084 F8FFFDBF 		.word	-1073872904
 266 0088 CDCCCCCC 		.word	-858993459
 267 008c 00000240 		.word	1073872896
 268 0090 F8FBFDBF 		.word	-1073873928
 269 0094 00040240 		.word	1073873920
 270              		.cfi_endproc
 271              	.LFE65:
 273              		.section	.text.HAL_DMA_DeInit,"ax",%progbits
 274              		.align	1
 275              		.global	HAL_DMA_DeInit
 276              		.syntax unified
 277              		.thumb
 278              		.thumb_func
 279              		.fpu softvfp
 281              	HAL_DMA_DeInit:
 282              	.LVL15:
 283              	.LFB66:
 221:Drivers/STM32F1xx_HAL_Driver/Src/stm32f1xx_hal_dma.c ****   /* Check the DMA handle allocation */
 284              		.loc 1 221 1 is_stmt 1 view -0
 285              		.cfi_startproc
 286              		@ args = 0, pretend = 0, frame = 0
 287              		@ frame_needed = 0, uses_anonymous_args = 0
 288              		@ link register save eliminated.
 223:Drivers/STM32F1xx_HAL_Driver/Src/stm32f1xx_hal_dma.c ****   {
 289              		.loc 1 223 3 view .LVU92
 223:Drivers/STM32F1xx_HAL_Driver/Src/stm32f1xx_hal_dma.c ****   {
 290              		.loc 1 223 5 is_stmt 0 view .LVU93
 291 0000 0346     		mov	r3, r0
 292 0002 0028     		cmp	r0, #0
 293 0004 36D0     		beq	.L21
 229:Drivers/STM32F1xx_HAL_Driver/Src/stm32f1xx_hal_dma.c **** 
 294              		.loc 1 229 3 is_stmt 1 view .LVU94
 232:Drivers/STM32F1xx_HAL_Driver/Src/stm32f1xx_hal_dma.c **** 
 295              		.loc 1 232 3 view .LVU95
 296 0006 0168     		ldr	r1, [r0]
 297 0008 0A68     		ldr	r2, [r1]
 298 000a 22F00102 		bic	r2, r2, #1
 299 000e 0A60     		str	r2, [r1]
ARM GAS  C:\Users\HARTO_~1\AppData\Local\Temp\ccO3OpW0.s 			page 23


 235:Drivers/STM32F1xx_HAL_Driver/Src/stm32f1xx_hal_dma.c **** 
 300              		.loc 1 235 3 view .LVU96
 235:Drivers/STM32F1xx_HAL_Driver/Src/stm32f1xx_hal_dma.c **** 
 301              		.loc 1 235 7 is_stmt 0 view .LVU97
 302 0010 0168     		ldr	r1, [r0]
 235:Drivers/STM32F1xx_HAL_Driver/Src/stm32f1xx_hal_dma.c **** 
 303              		.loc 1 235 24 view .LVU98
 304 0012 0022     		movs	r2, #0
 305 0014 0A60     		str	r2, [r1]
 238:Drivers/STM32F1xx_HAL_Driver/Src/stm32f1xx_hal_dma.c **** 
 306              		.loc 1 238 3 is_stmt 1 view .LVU99
 238:Drivers/STM32F1xx_HAL_Driver/Src/stm32f1xx_hal_dma.c **** 
 307              		.loc 1 238 7 is_stmt 0 view .LVU100
 308 0016 0168     		ldr	r1, [r0]
 238:Drivers/STM32F1xx_HAL_Driver/Src/stm32f1xx_hal_dma.c **** 
 309              		.loc 1 238 25 view .LVU101
 310 0018 4A60     		str	r2, [r1, #4]
 241:Drivers/STM32F1xx_HAL_Driver/Src/stm32f1xx_hal_dma.c **** 
 311              		.loc 1 241 3 is_stmt 1 view .LVU102
 241:Drivers/STM32F1xx_HAL_Driver/Src/stm32f1xx_hal_dma.c **** 
 312              		.loc 1 241 7 is_stmt 0 view .LVU103
 313 001a 0168     		ldr	r1, [r0]
 241:Drivers/STM32F1xx_HAL_Driver/Src/stm32f1xx_hal_dma.c **** 
 314              		.loc 1 241 25 view .LVU104
 315 001c 8A60     		str	r2, [r1, #8]
 244:Drivers/STM32F1xx_HAL_Driver/Src/stm32f1xx_hal_dma.c **** 
 316              		.loc 1 244 3 is_stmt 1 view .LVU105
 244:Drivers/STM32F1xx_HAL_Driver/Src/stm32f1xx_hal_dma.c **** 
 317              		.loc 1 244 7 is_stmt 0 view .LVU106
 318 001e 0168     		ldr	r1, [r0]
 244:Drivers/STM32F1xx_HAL_Driver/Src/stm32f1xx_hal_dma.c **** 
 319              		.loc 1 244 24 view .LVU107
 320 0020 CA60     		str	r2, [r1, #12]
 248:Drivers/STM32F1xx_HAL_Driver/Src/stm32f1xx_hal_dma.c ****   {
 321              		.loc 1 248 3 is_stmt 1 view .LVU108
 248:Drivers/STM32F1xx_HAL_Driver/Src/stm32f1xx_hal_dma.c ****   {
 322              		.loc 1 248 22 is_stmt 0 view .LVU109
 323 0022 0168     		ldr	r1, [r0]
 248:Drivers/STM32F1xx_HAL_Driver/Src/stm32f1xx_hal_dma.c ****   {
 324              		.loc 1 248 6 view .LVU110
 325 0024 144A     		ldr	r2, .L22
 326 0026 9142     		cmp	r1, r2
 327 0028 19D8     		bhi	.L19
 251:Drivers/STM32F1xx_HAL_Driver/Src/stm32f1xx_hal_dma.c ****     hdma->DmaBaseAddress = DMA1;
 328              		.loc 1 251 5 is_stmt 1 view .LVU111
 251:Drivers/STM32F1xx_HAL_Driver/Src/stm32f1xx_hal_dma.c ****     hdma->DmaBaseAddress = DMA1;
 329              		.loc 1 251 53 is_stmt 0 view .LVU112
 330 002a 144A     		ldr	r2, .L22+4
 331 002c 0A44     		add	r2, r2, r1
 251:Drivers/STM32F1xx_HAL_Driver/Src/stm32f1xx_hal_dma.c ****     hdma->DmaBaseAddress = DMA1;
 332              		.loc 1 251 80 view .LVU113
 333 002e 1449     		ldr	r1, .L22+8
 334 0030 A1FB0212 		umull	r1, r2, r1, r2
 335 0034 1209     		lsrs	r2, r2, #4
 251:Drivers/STM32F1xx_HAL_Driver/Src/stm32f1xx_hal_dma.c ****     hdma->DmaBaseAddress = DMA1;
 336              		.loc 1 251 135 view .LVU114
 337 0036 9200     		lsls	r2, r2, #2
ARM GAS  C:\Users\HARTO_~1\AppData\Local\Temp\ccO3OpW0.s 			page 24


 251:Drivers/STM32F1xx_HAL_Driver/Src/stm32f1xx_hal_dma.c ****     hdma->DmaBaseAddress = DMA1;
 338              		.loc 1 251 24 view .LVU115
 339 0038 0264     		str	r2, [r0, #64]
 252:Drivers/STM32F1xx_HAL_Driver/Src/stm32f1xx_hal_dma.c ****   }
 340              		.loc 1 252 5 is_stmt 1 view .LVU116
 252:Drivers/STM32F1xx_HAL_Driver/Src/stm32f1xx_hal_dma.c ****   }
 341              		.loc 1 252 26 is_stmt 0 view .LVU117
 342 003a 124A     		ldr	r2, .L22+12
 343 003c C263     		str	r2, [r0, #60]
 344              	.L20:
 267:Drivers/STM32F1xx_HAL_Driver/Src/stm32f1xx_hal_dma.c **** 
 345              		.loc 1 267 3 is_stmt 1 view .LVU118
 267:Drivers/STM32F1xx_HAL_Driver/Src/stm32f1xx_hal_dma.c **** 
 346              		.loc 1 267 54 is_stmt 0 view .LVU119
 347 003e 186C     		ldr	r0, [r3, #64]
 348              	.LVL16:
 267:Drivers/STM32F1xx_HAL_Driver/Src/stm32f1xx_hal_dma.c **** 
 349              		.loc 1 267 7 view .LVU120
 350 0040 D96B     		ldr	r1, [r3, #60]
 267:Drivers/STM32F1xx_HAL_Driver/Src/stm32f1xx_hal_dma.c **** 
 351              		.loc 1 267 46 view .LVU121
 352 0042 0122     		movs	r2, #1
 353 0044 8240     		lsls	r2, r2, r0
 267:Drivers/STM32F1xx_HAL_Driver/Src/stm32f1xx_hal_dma.c **** 
 354              		.loc 1 267 30 view .LVU122
 355 0046 4A60     		str	r2, [r1, #4]
 270:Drivers/STM32F1xx_HAL_Driver/Src/stm32f1xx_hal_dma.c ****   hdma->XferHalfCpltCallback = NULL;
 356              		.loc 1 270 3 is_stmt 1 view .LVU123
 270:Drivers/STM32F1xx_HAL_Driver/Src/stm32f1xx_hal_dma.c ****   hdma->XferHalfCpltCallback = NULL;
 357              		.loc 1 270 26 is_stmt 0 view .LVU124
 358 0048 0020     		movs	r0, #0
 359 004a 9862     		str	r0, [r3, #40]
 271:Drivers/STM32F1xx_HAL_Driver/Src/stm32f1xx_hal_dma.c ****   hdma->XferErrorCallback = NULL;
 360              		.loc 1 271 3 is_stmt 1 view .LVU125
 271:Drivers/STM32F1xx_HAL_Driver/Src/stm32f1xx_hal_dma.c ****   hdma->XferErrorCallback = NULL;
 361              		.loc 1 271 30 is_stmt 0 view .LVU126
 362 004c D862     		str	r0, [r3, #44]
 272:Drivers/STM32F1xx_HAL_Driver/Src/stm32f1xx_hal_dma.c ****   hdma->XferAbortCallback = NULL;
 363              		.loc 1 272 3 is_stmt 1 view .LVU127
 272:Drivers/STM32F1xx_HAL_Driver/Src/stm32f1xx_hal_dma.c ****   hdma->XferAbortCallback = NULL;
 364              		.loc 1 272 27 is_stmt 0 view .LVU128
 365 004e 1863     		str	r0, [r3, #48]
 273:Drivers/STM32F1xx_HAL_Driver/Src/stm32f1xx_hal_dma.c **** 
 366              		.loc 1 273 3 is_stmt 1 view .LVU129
 273:Drivers/STM32F1xx_HAL_Driver/Src/stm32f1xx_hal_dma.c **** 
 367              		.loc 1 273 27 is_stmt 0 view .LVU130
 368 0050 5863     		str	r0, [r3, #52]
 276:Drivers/STM32F1xx_HAL_Driver/Src/stm32f1xx_hal_dma.c **** 
 369              		.loc 1 276 3 is_stmt 1 view .LVU131
 276:Drivers/STM32F1xx_HAL_Driver/Src/stm32f1xx_hal_dma.c **** 
 370              		.loc 1 276 19 is_stmt 0 view .LVU132
 371 0052 9863     		str	r0, [r3, #56]
 279:Drivers/STM32F1xx_HAL_Driver/Src/stm32f1xx_hal_dma.c **** 
 372              		.loc 1 279 3 is_stmt 1 view .LVU133
 279:Drivers/STM32F1xx_HAL_Driver/Src/stm32f1xx_hal_dma.c **** 
 373              		.loc 1 279 15 is_stmt 0 view .LVU134
 374 0054 83F82100 		strb	r0, [r3, #33]
ARM GAS  C:\Users\HARTO_~1\AppData\Local\Temp\ccO3OpW0.s 			page 25


 282:Drivers/STM32F1xx_HAL_Driver/Src/stm32f1xx_hal_dma.c **** 
 375              		.loc 1 282 3 is_stmt 1 view .LVU135
 282:Drivers/STM32F1xx_HAL_Driver/Src/stm32f1xx_hal_dma.c **** 
 376              		.loc 1 282 3 view .LVU136
 377 0058 83F82000 		strb	r0, [r3, #32]
 284:Drivers/STM32F1xx_HAL_Driver/Src/stm32f1xx_hal_dma.c **** }
 378              		.loc 1 284 3 view .LVU137
 284:Drivers/STM32F1xx_HAL_Driver/Src/stm32f1xx_hal_dma.c **** }
 379              		.loc 1 284 10 is_stmt 0 view .LVU138
 380 005c 7047     		bx	lr
 381              	.LVL17:
 382              	.L19:
 257:Drivers/STM32F1xx_HAL_Driver/Src/stm32f1xx_hal_dma.c ****     hdma->DmaBaseAddress = DMA2;
 383              		.loc 1 257 5 is_stmt 1 view .LVU139
 257:Drivers/STM32F1xx_HAL_Driver/Src/stm32f1xx_hal_dma.c ****     hdma->DmaBaseAddress = DMA2;
 384              		.loc 1 257 53 is_stmt 0 view .LVU140
 385 005e 0A4A     		ldr	r2, .L22+16
 386 0060 0A44     		add	r2, r2, r1
 257:Drivers/STM32F1xx_HAL_Driver/Src/stm32f1xx_hal_dma.c ****     hdma->DmaBaseAddress = DMA2;
 387              		.loc 1 257 80 view .LVU141
 388 0062 0749     		ldr	r1, .L22+8
 389 0064 A1FB0212 		umull	r1, r2, r1, r2
 390 0068 1209     		lsrs	r2, r2, #4
 257:Drivers/STM32F1xx_HAL_Driver/Src/stm32f1xx_hal_dma.c ****     hdma->DmaBaseAddress = DMA2;
 391              		.loc 1 257 135 view .LVU142
 392 006a 9200     		lsls	r2, r2, #2
 257:Drivers/STM32F1xx_HAL_Driver/Src/stm32f1xx_hal_dma.c ****     hdma->DmaBaseAddress = DMA2;
 393              		.loc 1 257 24 view .LVU143
 394 006c 0264     		str	r2, [r0, #64]
 258:Drivers/STM32F1xx_HAL_Driver/Src/stm32f1xx_hal_dma.c ****   }
 395              		.loc 1 258 5 is_stmt 1 view .LVU144
 258:Drivers/STM32F1xx_HAL_Driver/Src/stm32f1xx_hal_dma.c ****   }
 396              		.loc 1 258 26 is_stmt 0 view .LVU145
 397 006e 074A     		ldr	r2, .L22+20
 398 0070 C263     		str	r2, [r0, #60]
 399 0072 E4E7     		b	.L20
 400              	.L21:
 225:Drivers/STM32F1xx_HAL_Driver/Src/stm32f1xx_hal_dma.c ****   }
 401              		.loc 1 225 12 view .LVU146
 402 0074 0120     		movs	r0, #1
 403              	.LVL18:
 285:Drivers/STM32F1xx_HAL_Driver/Src/stm32f1xx_hal_dma.c **** 
 404              		.loc 1 285 1 view .LVU147
 405 0076 7047     		bx	lr
 406              	.L23:
 407              		.align	2
 408              	.L22:
 409 0078 07040240 		.word	1073873927
 410 007c F8FFFDBF 		.word	-1073872904
 411 0080 CDCCCCCC 		.word	-858993459
 412 0084 00000240 		.word	1073872896
 413 0088 F8FBFDBF 		.word	-1073873928
 414 008c 00040240 		.word	1073873920
 415              		.cfi_endproc
 416              	.LFE66:
 418              		.section	.text.HAL_DMA_Start,"ax",%progbits
 419              		.align	1
ARM GAS  C:\Users\HARTO_~1\AppData\Local\Temp\ccO3OpW0.s 			page 26


 420              		.global	HAL_DMA_Start
 421              		.syntax unified
 422              		.thumb
 423              		.thumb_func
 424              		.fpu softvfp
 426              	HAL_DMA_Start:
 427              	.LVL19:
 428              	.LFB67:
 320:Drivers/STM32F1xx_HAL_Driver/Src/stm32f1xx_hal_dma.c ****   HAL_StatusTypeDef status = HAL_OK;
 429              		.loc 1 320 1 is_stmt 1 view -0
 430              		.cfi_startproc
 431              		@ args = 0, pretend = 0, frame = 0
 432              		@ frame_needed = 0, uses_anonymous_args = 0
 320:Drivers/STM32F1xx_HAL_Driver/Src/stm32f1xx_hal_dma.c ****   HAL_StatusTypeDef status = HAL_OK;
 433              		.loc 1 320 1 is_stmt 0 view .LVU149
 434 0000 70B5     		push	{r4, r5, r6, lr}
 435              	.LCFI7:
 436              		.cfi_def_cfa_offset 16
 437              		.cfi_offset 4, -16
 438              		.cfi_offset 5, -12
 439              		.cfi_offset 6, -8
 440              		.cfi_offset 14, -4
 321:Drivers/STM32F1xx_HAL_Driver/Src/stm32f1xx_hal_dma.c **** 
 441              		.loc 1 321 3 is_stmt 1 view .LVU150
 442              	.LVL20:
 324:Drivers/STM32F1xx_HAL_Driver/Src/stm32f1xx_hal_dma.c **** 
 443              		.loc 1 324 3 view .LVU151
 327:Drivers/STM32F1xx_HAL_Driver/Src/stm32f1xx_hal_dma.c **** 
 444              		.loc 1 327 3 view .LVU152
 327:Drivers/STM32F1xx_HAL_Driver/Src/stm32f1xx_hal_dma.c **** 
 445              		.loc 1 327 3 view .LVU153
 446 0002 90F82040 		ldrb	r4, [r0, #32]	@ zero_extendqisi2
 447 0006 012C     		cmp	r4, #1
 448 0008 20D0     		beq	.L27
 327:Drivers/STM32F1xx_HAL_Driver/Src/stm32f1xx_hal_dma.c **** 
 449              		.loc 1 327 3 discriminator 2 view .LVU154
 450 000a 0124     		movs	r4, #1
 451 000c 80F82040 		strb	r4, [r0, #32]
 329:Drivers/STM32F1xx_HAL_Driver/Src/stm32f1xx_hal_dma.c ****   {
 452              		.loc 1 329 3 discriminator 2 view .LVU155
 329:Drivers/STM32F1xx_HAL_Driver/Src/stm32f1xx_hal_dma.c ****   {
 453              		.loc 1 329 33 is_stmt 0 discriminator 2 view .LVU156
 454 0010 90F82140 		ldrb	r4, [r0, #33]	@ zero_extendqisi2
 329:Drivers/STM32F1xx_HAL_Driver/Src/stm32f1xx_hal_dma.c ****   {
 455              		.loc 1 329 5 discriminator 2 view .LVU157
 456 0014 012C     		cmp	r4, #1
 457 0016 04D0     		beq	.L29
 347:Drivers/STM32F1xx_HAL_Driver/Src/stm32f1xx_hal_dma.c ****    status = HAL_BUSY;
 458              		.loc 1 347 4 is_stmt 1 view .LVU158
 347:Drivers/STM32F1xx_HAL_Driver/Src/stm32f1xx_hal_dma.c ****    status = HAL_BUSY;
 459              		.loc 1 347 4 view .LVU159
 460 0018 0023     		movs	r3, #0
 461              	.LVL21:
 347:Drivers/STM32F1xx_HAL_Driver/Src/stm32f1xx_hal_dma.c ****    status = HAL_BUSY;
 462              		.loc 1 347 4 is_stmt 0 view .LVU160
 463 001a 80F82030 		strb	r3, [r0, #32]
 348:Drivers/STM32F1xx_HAL_Driver/Src/stm32f1xx_hal_dma.c ****   }  
ARM GAS  C:\Users\HARTO_~1\AppData\Local\Temp\ccO3OpW0.s 			page 27


 464              		.loc 1 348 4 is_stmt 1 view .LVU161
 465              	.LVL22:
 348:Drivers/STM32F1xx_HAL_Driver/Src/stm32f1xx_hal_dma.c ****   }  
 466              		.loc 1 348 11 is_stmt 0 view .LVU162
 467 001e 0220     		movs	r0, #2
 468              	.LVL23:
 469              	.L25:
 351:Drivers/STM32F1xx_HAL_Driver/Src/stm32f1xx_hal_dma.c **** 
 470              		.loc 1 351 1 view .LVU163
 471 0020 70BD     		pop	{r4, r5, r6, pc}
 472              	.LVL24:
 473              	.L29:
 351:Drivers/STM32F1xx_HAL_Driver/Src/stm32f1xx_hal_dma.c **** 
 474              		.loc 1 351 1 view .LVU164
 475 0022 0446     		mov	r4, r0
 332:Drivers/STM32F1xx_HAL_Driver/Src/stm32f1xx_hal_dma.c ****     hdma->ErrorCode = HAL_DMA_ERROR_NONE;
 476              		.loc 1 332 5 is_stmt 1 view .LVU165
 332:Drivers/STM32F1xx_HAL_Driver/Src/stm32f1xx_hal_dma.c ****     hdma->ErrorCode = HAL_DMA_ERROR_NONE;
 477              		.loc 1 332 17 is_stmt 0 view .LVU166
 478 0024 0220     		movs	r0, #2
 479              	.LVL25:
 332:Drivers/STM32F1xx_HAL_Driver/Src/stm32f1xx_hal_dma.c ****     hdma->ErrorCode = HAL_DMA_ERROR_NONE;
 480              		.loc 1 332 17 view .LVU167
 481 0026 84F82100 		strb	r0, [r4, #33]
 333:Drivers/STM32F1xx_HAL_Driver/Src/stm32f1xx_hal_dma.c ****             
 482              		.loc 1 333 5 is_stmt 1 view .LVU168
 333:Drivers/STM32F1xx_HAL_Driver/Src/stm32f1xx_hal_dma.c ****             
 483              		.loc 1 333 21 is_stmt 0 view .LVU169
 484 002a 0025     		movs	r5, #0
 485 002c A563     		str	r5, [r4, #56]
 336:Drivers/STM32F1xx_HAL_Driver/Src/stm32f1xx_hal_dma.c ****     
 486              		.loc 1 336 5 is_stmt 1 view .LVU170
 487 002e 2668     		ldr	r6, [r4]
 488 0030 3068     		ldr	r0, [r6]
 489 0032 20F00100 		bic	r0, r0, #1
 490 0036 3060     		str	r0, [r6]
 339:Drivers/STM32F1xx_HAL_Driver/Src/stm32f1xx_hal_dma.c ****     
 491              		.loc 1 339 5 view .LVU171
 492 0038 2046     		mov	r0, r4
 493 003a FFF7FEFF 		bl	DMA_SetConfig
 494              	.LVL26:
 342:Drivers/STM32F1xx_HAL_Driver/Src/stm32f1xx_hal_dma.c ****   }
 495              		.loc 1 342 5 view .LVU172
 496 003e 2268     		ldr	r2, [r4]
 497 0040 1368     		ldr	r3, [r2]
 498 0042 43F00103 		orr	r3, r3, #1
 499 0046 1360     		str	r3, [r2]
 321:Drivers/STM32F1xx_HAL_Driver/Src/stm32f1xx_hal_dma.c **** 
 500              		.loc 1 321 21 is_stmt 0 view .LVU173
 501 0048 2846     		mov	r0, r5
 502 004a E9E7     		b	.L25
 503              	.LVL27:
 504              	.L27:
 327:Drivers/STM32F1xx_HAL_Driver/Src/stm32f1xx_hal_dma.c **** 
 505              		.loc 1 327 3 view .LVU174
 506 004c 0220     		movs	r0, #2
 507              	.LVL28:
ARM GAS  C:\Users\HARTO_~1\AppData\Local\Temp\ccO3OpW0.s 			page 28


 327:Drivers/STM32F1xx_HAL_Driver/Src/stm32f1xx_hal_dma.c **** 
 508              		.loc 1 327 3 view .LVU175
 509 004e E7E7     		b	.L25
 510              		.cfi_endproc
 511              	.LFE67:
 513              		.section	.text.HAL_DMA_Start_IT,"ax",%progbits
 514              		.align	1
 515              		.global	HAL_DMA_Start_IT
 516              		.syntax unified
 517              		.thumb
 518              		.thumb_func
 519              		.fpu softvfp
 521              	HAL_DMA_Start_IT:
 522              	.LVL29:
 523              	.LFB68:
 363:Drivers/STM32F1xx_HAL_Driver/Src/stm32f1xx_hal_dma.c ****   HAL_StatusTypeDef status = HAL_OK;
 524              		.loc 1 363 1 is_stmt 1 view -0
 525              		.cfi_startproc
 526              		@ args = 0, pretend = 0, frame = 0
 527              		@ frame_needed = 0, uses_anonymous_args = 0
 363:Drivers/STM32F1xx_HAL_Driver/Src/stm32f1xx_hal_dma.c ****   HAL_StatusTypeDef status = HAL_OK;
 528              		.loc 1 363 1 is_stmt 0 view .LVU177
 529 0000 38B5     		push	{r3, r4, r5, lr}
 530              	.LCFI8:
 531              		.cfi_def_cfa_offset 16
 532              		.cfi_offset 3, -16
 533              		.cfi_offset 4, -12
 534              		.cfi_offset 5, -8
 535              		.cfi_offset 14, -4
 364:Drivers/STM32F1xx_HAL_Driver/Src/stm32f1xx_hal_dma.c **** 
 536              		.loc 1 364 3 is_stmt 1 view .LVU178
 537              	.LVL30:
 367:Drivers/STM32F1xx_HAL_Driver/Src/stm32f1xx_hal_dma.c **** 
 538              		.loc 1 367 3 view .LVU179
 370:Drivers/STM32F1xx_HAL_Driver/Src/stm32f1xx_hal_dma.c ****   
 539              		.loc 1 370 3 view .LVU180
 370:Drivers/STM32F1xx_HAL_Driver/Src/stm32f1xx_hal_dma.c ****   
 540              		.loc 1 370 3 view .LVU181
 541 0002 90F82040 		ldrb	r4, [r0, #32]	@ zero_extendqisi2
 542 0006 012C     		cmp	r4, #1
 543 0008 32D0     		beq	.L35
 370:Drivers/STM32F1xx_HAL_Driver/Src/stm32f1xx_hal_dma.c ****   
 544              		.loc 1 370 3 discriminator 2 view .LVU182
 545 000a 0124     		movs	r4, #1
 546 000c 80F82040 		strb	r4, [r0, #32]
 372:Drivers/STM32F1xx_HAL_Driver/Src/stm32f1xx_hal_dma.c ****   {
 547              		.loc 1 372 3 discriminator 2 view .LVU183
 372:Drivers/STM32F1xx_HAL_Driver/Src/stm32f1xx_hal_dma.c ****   {
 548              		.loc 1 372 33 is_stmt 0 discriminator 2 view .LVU184
 549 0010 90F82140 		ldrb	r4, [r0, #33]	@ zero_extendqisi2
 372:Drivers/STM32F1xx_HAL_Driver/Src/stm32f1xx_hal_dma.c ****   {
 550              		.loc 1 372 5 discriminator 2 view .LVU185
 551 0014 012C     		cmp	r4, #1
 552 0016 04D0     		beq	.L37
 402:Drivers/STM32F1xx_HAL_Driver/Src/stm32f1xx_hal_dma.c **** 
 553              		.loc 1 402 5 is_stmt 1 view .LVU186
 402:Drivers/STM32F1xx_HAL_Driver/Src/stm32f1xx_hal_dma.c **** 
ARM GAS  C:\Users\HARTO_~1\AppData\Local\Temp\ccO3OpW0.s 			page 29


 554              		.loc 1 402 5 view .LVU187
 555 0018 0023     		movs	r3, #0
 556              	.LVL31:
 402:Drivers/STM32F1xx_HAL_Driver/Src/stm32f1xx_hal_dma.c **** 
 557              		.loc 1 402 5 is_stmt 0 view .LVU188
 558 001a 80F82030 		strb	r3, [r0, #32]
 405:Drivers/STM32F1xx_HAL_Driver/Src/stm32f1xx_hal_dma.c ****   }    
 559              		.loc 1 405 5 is_stmt 1 view .LVU189
 560              	.LVL32:
 405:Drivers/STM32F1xx_HAL_Driver/Src/stm32f1xx_hal_dma.c ****   }    
 561              		.loc 1 405 12 is_stmt 0 view .LVU190
 562 001e 0220     		movs	r0, #2
 563              	.LVL33:
 564              	.L31:
 408:Drivers/STM32F1xx_HAL_Driver/Src/stm32f1xx_hal_dma.c **** 
 565              		.loc 1 408 1 view .LVU191
 566 0020 38BD     		pop	{r3, r4, r5, pc}
 567              	.LVL34:
 568              	.L37:
 408:Drivers/STM32F1xx_HAL_Driver/Src/stm32f1xx_hal_dma.c **** 
 569              		.loc 1 408 1 view .LVU192
 570 0022 0446     		mov	r4, r0
 375:Drivers/STM32F1xx_HAL_Driver/Src/stm32f1xx_hal_dma.c ****     hdma->ErrorCode = HAL_DMA_ERROR_NONE;
 571              		.loc 1 375 5 is_stmt 1 view .LVU193
 375:Drivers/STM32F1xx_HAL_Driver/Src/stm32f1xx_hal_dma.c ****     hdma->ErrorCode = HAL_DMA_ERROR_NONE;
 572              		.loc 1 375 17 is_stmt 0 view .LVU194
 573 0024 0220     		movs	r0, #2
 574              	.LVL35:
 375:Drivers/STM32F1xx_HAL_Driver/Src/stm32f1xx_hal_dma.c ****     hdma->ErrorCode = HAL_DMA_ERROR_NONE;
 575              		.loc 1 375 17 view .LVU195
 576 0026 84F82100 		strb	r0, [r4, #33]
 376:Drivers/STM32F1xx_HAL_Driver/Src/stm32f1xx_hal_dma.c ****     
 577              		.loc 1 376 5 is_stmt 1 view .LVU196
 376:Drivers/STM32F1xx_HAL_Driver/Src/stm32f1xx_hal_dma.c ****     
 578              		.loc 1 376 21 is_stmt 0 view .LVU197
 579 002a 0020     		movs	r0, #0
 580 002c A063     		str	r0, [r4, #56]
 379:Drivers/STM32F1xx_HAL_Driver/Src/stm32f1xx_hal_dma.c ****     
 581              		.loc 1 379 5 is_stmt 1 view .LVU198
 582 002e 2568     		ldr	r5, [r4]
 583 0030 2868     		ldr	r0, [r5]
 584 0032 20F00100 		bic	r0, r0, #1
 585 0036 2860     		str	r0, [r5]
 382:Drivers/STM32F1xx_HAL_Driver/Src/stm32f1xx_hal_dma.c ****     
 586              		.loc 1 382 5 view .LVU199
 587 0038 2046     		mov	r0, r4
 588 003a FFF7FEFF 		bl	DMA_SetConfig
 589              	.LVL36:
 386:Drivers/STM32F1xx_HAL_Driver/Src/stm32f1xx_hal_dma.c ****     {
 590              		.loc 1 386 5 view .LVU200
 386:Drivers/STM32F1xx_HAL_Driver/Src/stm32f1xx_hal_dma.c ****     {
 591              		.loc 1 386 20 is_stmt 0 view .LVU201
 592 003e E36A     		ldr	r3, [r4, #44]
 386:Drivers/STM32F1xx_HAL_Driver/Src/stm32f1xx_hal_dma.c ****     {
 593              		.loc 1 386 7 view .LVU202
 594 0040 5BB1     		cbz	r3, .L33
 389:Drivers/STM32F1xx_HAL_Driver/Src/stm32f1xx_hal_dma.c ****     }
ARM GAS  C:\Users\HARTO_~1\AppData\Local\Temp\ccO3OpW0.s 			page 30


 595              		.loc 1 389 7 is_stmt 1 view .LVU203
 596 0042 2268     		ldr	r2, [r4]
 597 0044 1368     		ldr	r3, [r2]
 598 0046 43F00E03 		orr	r3, r3, #14
 599 004a 1360     		str	r3, [r2]
 600              	.L34:
 397:Drivers/STM32F1xx_HAL_Driver/Src/stm32f1xx_hal_dma.c ****   }
 601              		.loc 1 397 5 view .LVU204
 602 004c 2268     		ldr	r2, [r4]
 603 004e 1368     		ldr	r3, [r2]
 604 0050 43F00103 		orr	r3, r3, #1
 605 0054 1360     		str	r3, [r2]
 364:Drivers/STM32F1xx_HAL_Driver/Src/stm32f1xx_hal_dma.c **** 
 606              		.loc 1 364 21 is_stmt 0 view .LVU205
 607 0056 0020     		movs	r0, #0
 608 0058 E2E7     		b	.L31
 609              	.L33:
 393:Drivers/STM32F1xx_HAL_Driver/Src/stm32f1xx_hal_dma.c ****       __HAL_DMA_ENABLE_IT(hdma, (DMA_IT_TC | DMA_IT_TE));
 610              		.loc 1 393 7 is_stmt 1 view .LVU206
 611 005a 2268     		ldr	r2, [r4]
 612 005c 1368     		ldr	r3, [r2]
 613 005e 23F00403 		bic	r3, r3, #4
 614 0062 1360     		str	r3, [r2]
 394:Drivers/STM32F1xx_HAL_Driver/Src/stm32f1xx_hal_dma.c ****     }
 615              		.loc 1 394 7 view .LVU207
 616 0064 2268     		ldr	r2, [r4]
 617 0066 1368     		ldr	r3, [r2]
 618 0068 43F00A03 		orr	r3, r3, #10
 619 006c 1360     		str	r3, [r2]
 620 006e EDE7     		b	.L34
 621              	.LVL37:
 622              	.L35:
 370:Drivers/STM32F1xx_HAL_Driver/Src/stm32f1xx_hal_dma.c ****   
 623              		.loc 1 370 3 is_stmt 0 view .LVU208
 624 0070 0220     		movs	r0, #2
 625              	.LVL38:
 370:Drivers/STM32F1xx_HAL_Driver/Src/stm32f1xx_hal_dma.c ****   
 626              		.loc 1 370 3 view .LVU209
 627 0072 D5E7     		b	.L31
 628              		.cfi_endproc
 629              	.LFE68:
 631              		.section	.text.HAL_DMA_Abort,"ax",%progbits
 632              		.align	1
 633              		.global	HAL_DMA_Abort
 634              		.syntax unified
 635              		.thumb
 636              		.thumb_func
 637              		.fpu softvfp
 639              	HAL_DMA_Abort:
 640              	.LVL39:
 641              	.LFB69:
 417:Drivers/STM32F1xx_HAL_Driver/Src/stm32f1xx_hal_dma.c ****   HAL_StatusTypeDef status = HAL_OK;
 642              		.loc 1 417 1 is_stmt 1 view -0
 643              		.cfi_startproc
 644              		@ args = 0, pretend = 0, frame = 0
 645              		@ frame_needed = 0, uses_anonymous_args = 0
 646              		@ link register save eliminated.
ARM GAS  C:\Users\HARTO_~1\AppData\Local\Temp\ccO3OpW0.s 			page 31


 418:Drivers/STM32F1xx_HAL_Driver/Src/stm32f1xx_hal_dma.c ****   
 647              		.loc 1 418 3 view .LVU211
 420:Drivers/STM32F1xx_HAL_Driver/Src/stm32f1xx_hal_dma.c ****   {
 648              		.loc 1 420 3 view .LVU212
 420:Drivers/STM32F1xx_HAL_Driver/Src/stm32f1xx_hal_dma.c ****   {
 649              		.loc 1 420 10 is_stmt 0 view .LVU213
 650 0000 90F82130 		ldrb	r3, [r0, #33]	@ zero_extendqisi2
 420:Drivers/STM32F1xx_HAL_Driver/Src/stm32f1xx_hal_dma.c ****   {
 651              		.loc 1 420 5 view .LVU214
 652 0004 022B     		cmp	r3, #2
 653 0006 06D0     		beq	.L39
 423:Drivers/STM32F1xx_HAL_Driver/Src/stm32f1xx_hal_dma.c ****     
 654              		.loc 1 423 5 is_stmt 1 view .LVU215
 423:Drivers/STM32F1xx_HAL_Driver/Src/stm32f1xx_hal_dma.c ****     
 655              		.loc 1 423 21 is_stmt 0 view .LVU216
 656 0008 0423     		movs	r3, #4
 657 000a 8363     		str	r3, [r0, #56]
 426:Drivers/STM32F1xx_HAL_Driver/Src/stm32f1xx_hal_dma.c ****     
 658              		.loc 1 426 5 is_stmt 1 view .LVU217
 426:Drivers/STM32F1xx_HAL_Driver/Src/stm32f1xx_hal_dma.c ****     
 659              		.loc 1 426 5 view .LVU218
 660 000c 0023     		movs	r3, #0
 661 000e 80F82030 		strb	r3, [r0, #32]
 428:Drivers/STM32F1xx_HAL_Driver/Src/stm32f1xx_hal_dma.c ****   }
 662              		.loc 1 428 5 view .LVU219
 428:Drivers/STM32F1xx_HAL_Driver/Src/stm32f1xx_hal_dma.c ****   }
 663              		.loc 1 428 12 is_stmt 0 view .LVU220
 664 0012 0120     		movs	r0, #1
 665              	.LVL40:
 428:Drivers/STM32F1xx_HAL_Driver/Src/stm32f1xx_hal_dma.c ****   }
 666              		.loc 1 428 12 view .LVU221
 667 0014 7047     		bx	lr
 668              	.LVL41:
 669              	.L39:
 434:Drivers/STM32F1xx_HAL_Driver/Src/stm32f1xx_hal_dma.c ****       
 670              		.loc 1 434 5 is_stmt 1 view .LVU222
 671 0016 0268     		ldr	r2, [r0]
 672 0018 1368     		ldr	r3, [r2]
 673 001a 23F00E03 		bic	r3, r3, #14
 674 001e 1360     		str	r3, [r2]
 437:Drivers/STM32F1xx_HAL_Driver/Src/stm32f1xx_hal_dma.c ****       
 675              		.loc 1 437 5 view .LVU223
 676 0020 0268     		ldr	r2, [r0]
 677 0022 1368     		ldr	r3, [r2]
 678 0024 23F00103 		bic	r3, r3, #1
 679 0028 1360     		str	r3, [r2]
 440:Drivers/STM32F1xx_HAL_Driver/Src/stm32f1xx_hal_dma.c ****   }
 680              		.loc 1 440 5 view .LVU224
 440:Drivers/STM32F1xx_HAL_Driver/Src/stm32f1xx_hal_dma.c ****   }
 681              		.loc 1 440 55 is_stmt 0 view .LVU225
 682 002a 036C     		ldr	r3, [r0, #64]
 440:Drivers/STM32F1xx_HAL_Driver/Src/stm32f1xx_hal_dma.c ****   }
 683              		.loc 1 440 9 view .LVU226
 684 002c C16B     		ldr	r1, [r0, #60]
 440:Drivers/STM32F1xx_HAL_Driver/Src/stm32f1xx_hal_dma.c ****   }
 685              		.loc 1 440 48 view .LVU227
 686 002e 0122     		movs	r2, #1
ARM GAS  C:\Users\HARTO_~1\AppData\Local\Temp\ccO3OpW0.s 			page 32


 687 0030 02FA03F3 		lsl	r3, r2, r3
 440:Drivers/STM32F1xx_HAL_Driver/Src/stm32f1xx_hal_dma.c ****   }
 688              		.loc 1 440 32 view .LVU228
 689 0034 4B60     		str	r3, [r1, #4]
 443:Drivers/STM32F1xx_HAL_Driver/Src/stm32f1xx_hal_dma.c **** 
 690              		.loc 1 443 3 is_stmt 1 view .LVU229
 443:Drivers/STM32F1xx_HAL_Driver/Src/stm32f1xx_hal_dma.c **** 
 691              		.loc 1 443 15 is_stmt 0 view .LVU230
 692 0036 80F82120 		strb	r2, [r0, #33]
 446:Drivers/STM32F1xx_HAL_Driver/Src/stm32f1xx_hal_dma.c ****   
 693              		.loc 1 446 3 is_stmt 1 view .LVU231
 446:Drivers/STM32F1xx_HAL_Driver/Src/stm32f1xx_hal_dma.c ****   
 694              		.loc 1 446 3 view .LVU232
 695 003a 0023     		movs	r3, #0
 696 003c 80F82030 		strb	r3, [r0, #32]
 448:Drivers/STM32F1xx_HAL_Driver/Src/stm32f1xx_hal_dma.c **** }
 697              		.loc 1 448 3 view .LVU233
 448:Drivers/STM32F1xx_HAL_Driver/Src/stm32f1xx_hal_dma.c **** }
 698              		.loc 1 448 10 is_stmt 0 view .LVU234
 699 0040 1846     		mov	r0, r3
 700              	.LVL42:
 449:Drivers/STM32F1xx_HAL_Driver/Src/stm32f1xx_hal_dma.c **** 
 701              		.loc 1 449 1 view .LVU235
 702 0042 7047     		bx	lr
 703              		.cfi_endproc
 704              	.LFE69:
 706              		.section	.text.HAL_DMA_Abort_IT,"ax",%progbits
 707              		.align	1
 708              		.global	HAL_DMA_Abort_IT
 709              		.syntax unified
 710              		.thumb
 711              		.thumb_func
 712              		.fpu softvfp
 714              	HAL_DMA_Abort_IT:
 715              	.LVL43:
 716              	.LFB70:
 458:Drivers/STM32F1xx_HAL_Driver/Src/stm32f1xx_hal_dma.c ****   HAL_StatusTypeDef status = HAL_OK;
 717              		.loc 1 458 1 is_stmt 1 view -0
 718              		.cfi_startproc
 719              		@ args = 0, pretend = 0, frame = 0
 720              		@ frame_needed = 0, uses_anonymous_args = 0
 458:Drivers/STM32F1xx_HAL_Driver/Src/stm32f1xx_hal_dma.c ****   HAL_StatusTypeDef status = HAL_OK;
 721              		.loc 1 458 1 is_stmt 0 view .LVU237
 722 0000 08B5     		push	{r3, lr}
 723              	.LCFI9:
 724              		.cfi_def_cfa_offset 8
 725              		.cfi_offset 3, -8
 726              		.cfi_offset 14, -4
 459:Drivers/STM32F1xx_HAL_Driver/Src/stm32f1xx_hal_dma.c ****   
 727              		.loc 1 459 3 is_stmt 1 view .LVU238
 728              	.LVL44:
 461:Drivers/STM32F1xx_HAL_Driver/Src/stm32f1xx_hal_dma.c ****   {
 729              		.loc 1 461 3 view .LVU239
 461:Drivers/STM32F1xx_HAL_Driver/Src/stm32f1xx_hal_dma.c ****   {
 730              		.loc 1 461 32 is_stmt 0 view .LVU240
 731 0002 90F82130 		ldrb	r3, [r0, #33]	@ zero_extendqisi2
 461:Drivers/STM32F1xx_HAL_Driver/Src/stm32f1xx_hal_dma.c ****   {
ARM GAS  C:\Users\HARTO_~1\AppData\Local\Temp\ccO3OpW0.s 			page 33


 732              		.loc 1 461 5 view .LVU241
 733 0006 022B     		cmp	r3, #2
 734 0008 03D0     		beq	.L42
 464:Drivers/STM32F1xx_HAL_Driver/Src/stm32f1xx_hal_dma.c ****         
 735              		.loc 1 464 5 is_stmt 1 view .LVU242
 464:Drivers/STM32F1xx_HAL_Driver/Src/stm32f1xx_hal_dma.c ****         
 736              		.loc 1 464 21 is_stmt 0 view .LVU243
 737 000a 0423     		movs	r3, #4
 738 000c 8363     		str	r3, [r0, #56]
 466:Drivers/STM32F1xx_HAL_Driver/Src/stm32f1xx_hal_dma.c ****   }
 739              		.loc 1 466 5 is_stmt 1 view .LVU244
 740              	.LVL45:
 466:Drivers/STM32F1xx_HAL_Driver/Src/stm32f1xx_hal_dma.c ****   }
 741              		.loc 1 466 12 is_stmt 0 view .LVU245
 742 000e 0120     		movs	r0, #1
 743              	.LVL46:
 744              	.L43:
 491:Drivers/STM32F1xx_HAL_Driver/Src/stm32f1xx_hal_dma.c **** }
 745              		.loc 1 491 3 is_stmt 1 view .LVU246
 492:Drivers/STM32F1xx_HAL_Driver/Src/stm32f1xx_hal_dma.c **** 
 746              		.loc 1 492 1 is_stmt 0 view .LVU247
 747 0010 08BD     		pop	{r3, pc}
 748              	.LVL47:
 749              	.L42:
 471:Drivers/STM32F1xx_HAL_Driver/Src/stm32f1xx_hal_dma.c **** 
 750              		.loc 1 471 5 is_stmt 1 view .LVU248
 751 0012 0268     		ldr	r2, [r0]
 752 0014 1368     		ldr	r3, [r2]
 753 0016 23F00E03 		bic	r3, r3, #14
 754 001a 1360     		str	r3, [r2]
 474:Drivers/STM32F1xx_HAL_Driver/Src/stm32f1xx_hal_dma.c **** 
 755              		.loc 1 474 5 view .LVU249
 756 001c 0268     		ldr	r2, [r0]
 757 001e 1368     		ldr	r3, [r2]
 758 0020 23F00103 		bic	r3, r3, #1
 759 0024 1360     		str	r3, [r2]
 477:Drivers/STM32F1xx_HAL_Driver/Src/stm32f1xx_hal_dma.c **** 
 760              		.loc 1 477 5 view .LVU250
 761 0026 0368     		ldr	r3, [r0]
 762 0028 4B4A     		ldr	r2, .L74
 763 002a 9342     		cmp	r3, r2
 764 002c 4ED9     		bls	.L44
 477:Drivers/STM32F1xx_HAL_Driver/Src/stm32f1xx_hal_dma.c **** 
 765              		.loc 1 477 5 is_stmt 0 discriminator 1 view .LVU251
 766 002e 783A     		subs	r2, r2, #120
 767 0030 9342     		cmp	r3, r2
 768 0032 24D0     		beq	.L48
 477:Drivers/STM32F1xx_HAL_Driver/Src/stm32f1xx_hal_dma.c **** 
 769              		.loc 1 477 5 discriminator 3 view .LVU252
 770 0034 1432     		adds	r2, r2, #20
 771 0036 9342     		cmp	r3, r2
 772 0038 30D0     		beq	.L49
 477:Drivers/STM32F1xx_HAL_Driver/Src/stm32f1xx_hal_dma.c **** 
 773              		.loc 1 477 5 discriminator 5 view .LVU253
 774 003a 1432     		adds	r2, r2, #20
 775 003c 9342     		cmp	r3, r2
 776 003e 2FD0     		beq	.L50
ARM GAS  C:\Users\HARTO_~1\AppData\Local\Temp\ccO3OpW0.s 			page 34


 477:Drivers/STM32F1xx_HAL_Driver/Src/stm32f1xx_hal_dma.c **** 
 777              		.loc 1 477 5 discriminator 7 view .LVU254
 778 0040 1432     		adds	r2, r2, #20
 779 0042 9342     		cmp	r3, r2
 780 0044 2FD0     		beq	.L51
 477:Drivers/STM32F1xx_HAL_Driver/Src/stm32f1xx_hal_dma.c **** 
 781              		.loc 1 477 5 discriminator 9 view .LVU255
 782 0046 1432     		adds	r2, r2, #20
 783 0048 9342     		cmp	r3, r2
 784 004a 2FD0     		beq	.L52
 477:Drivers/STM32F1xx_HAL_Driver/Src/stm32f1xx_hal_dma.c **** 
 785              		.loc 1 477 5 discriminator 11 view .LVU256
 786 004c 1432     		adds	r2, r2, #20
 787 004e 9342     		cmp	r3, r2
 788 0050 2FD0     		beq	.L53
 477:Drivers/STM32F1xx_HAL_Driver/Src/stm32f1xx_hal_dma.c **** 
 789              		.loc 1 477 5 discriminator 13 view .LVU257
 790 0052 1432     		adds	r2, r2, #20
 791 0054 9342     		cmp	r3, r2
 792 0056 2FD0     		beq	.L54
 477:Drivers/STM32F1xx_HAL_Driver/Src/stm32f1xx_hal_dma.c **** 
 793              		.loc 1 477 5 discriminator 15 view .LVU258
 794 0058 02F56272 		add	r2, r2, #904
 795 005c 9342     		cmp	r3, r2
 796 005e 2ED0     		beq	.L55
 477:Drivers/STM32F1xx_HAL_Driver/Src/stm32f1xx_hal_dma.c **** 
 797              		.loc 1 477 5 discriminator 17 view .LVU259
 798 0060 1432     		adds	r2, r2, #20
 799 0062 9342     		cmp	r3, r2
 800 0064 2DD0     		beq	.L56
 477:Drivers/STM32F1xx_HAL_Driver/Src/stm32f1xx_hal_dma.c **** 
 801              		.loc 1 477 5 discriminator 19 view .LVU260
 802 0066 1432     		adds	r2, r2, #20
 803 0068 9342     		cmp	r3, r2
 804 006a 2CD0     		beq	.L57
 477:Drivers/STM32F1xx_HAL_Driver/Src/stm32f1xx_hal_dma.c **** 
 805              		.loc 1 477 5 discriminator 21 view .LVU261
 806 006c 1432     		adds	r2, r2, #20
 807 006e 9342     		cmp	r3, r2
 808 0070 02D0     		beq	.L72
 477:Drivers/STM32F1xx_HAL_Driver/Src/stm32f1xx_hal_dma.c **** 
 809              		.loc 1 477 5 view .LVU262
 810 0072 4FF48032 		mov	r2, #65536
 811 0076 03E0     		b	.L45
 812              	.L72:
 813 0078 4FF48052 		mov	r2, #4096
 814 007c 00E0     		b	.L45
 815              	.L48:
 816 007e 0122     		movs	r2, #1
 817              	.L45:
 477:Drivers/STM32F1xx_HAL_Driver/Src/stm32f1xx_hal_dma.c **** 
 818              		.loc 1 477 5 discriminator 46 view .LVU263
 819 0080 364B     		ldr	r3, .L74+4
 820 0082 5A60     		str	r2, [r3, #4]
 821              	.L46:
 480:Drivers/STM32F1xx_HAL_Driver/Src/stm32f1xx_hal_dma.c **** 
 822              		.loc 1 480 5 is_stmt 1 view .LVU264
ARM GAS  C:\Users\HARTO_~1\AppData\Local\Temp\ccO3OpW0.s 			page 35


 480:Drivers/STM32F1xx_HAL_Driver/Src/stm32f1xx_hal_dma.c **** 
 823              		.loc 1 480 17 is_stmt 0 view .LVU265
 824 0084 0123     		movs	r3, #1
 825 0086 80F82130 		strb	r3, [r0, #33]
 483:Drivers/STM32F1xx_HAL_Driver/Src/stm32f1xx_hal_dma.c **** 
 826              		.loc 1 483 5 is_stmt 1 view .LVU266
 483:Drivers/STM32F1xx_HAL_Driver/Src/stm32f1xx_hal_dma.c **** 
 827              		.loc 1 483 5 view .LVU267
 828 008a 0023     		movs	r3, #0
 829 008c 80F82030 		strb	r3, [r0, #32]
 486:Drivers/STM32F1xx_HAL_Driver/Src/stm32f1xx_hal_dma.c ****     {
 830              		.loc 1 486 5 view .LVU268
 486:Drivers/STM32F1xx_HAL_Driver/Src/stm32f1xx_hal_dma.c ****     {
 831              		.loc 1 486 12 is_stmt 0 view .LVU269
 832 0090 436B     		ldr	r3, [r0, #52]
 486:Drivers/STM32F1xx_HAL_Driver/Src/stm32f1xx_hal_dma.c ****     {
 833              		.loc 1 486 7 view .LVU270
 834 0092 002B     		cmp	r3, #0
 835 0094 5ED0     		beq	.L70
 488:Drivers/STM32F1xx_HAL_Driver/Src/stm32f1xx_hal_dma.c ****     } 
 836              		.loc 1 488 7 is_stmt 1 view .LVU271
 837 0096 9847     		blx	r3
 838              	.LVL48:
 459:Drivers/STM32F1xx_HAL_Driver/Src/stm32f1xx_hal_dma.c ****   
 839              		.loc 1 459 21 is_stmt 0 view .LVU272
 840 0098 0020     		movs	r0, #0
 841 009a B9E7     		b	.L43
 842              	.LVL49:
 843              	.L49:
 477:Drivers/STM32F1xx_HAL_Driver/Src/stm32f1xx_hal_dma.c **** 
 844              		.loc 1 477 5 view .LVU273
 845 009c 1022     		movs	r2, #16
 846 009e EFE7     		b	.L45
 847              	.L50:
 848 00a0 4FF48072 		mov	r2, #256
 849 00a4 ECE7     		b	.L45
 850              	.L51:
 851 00a6 4FF48052 		mov	r2, #4096
 852 00aa E9E7     		b	.L45
 853              	.L52:
 854 00ac 4FF48032 		mov	r2, #65536
 855 00b0 E6E7     		b	.L45
 856              	.L53:
 857 00b2 4FF48012 		mov	r2, #1048576
 858 00b6 E3E7     		b	.L45
 859              	.L54:
 860 00b8 4FF08072 		mov	r2, #16777216
 861 00bc E0E7     		b	.L45
 862              	.L55:
 863 00be 0122     		movs	r2, #1
 864 00c0 DEE7     		b	.L45
 865              	.L56:
 866 00c2 1022     		movs	r2, #16
 867 00c4 DCE7     		b	.L45
 868              	.L57:
 869 00c6 4FF48072 		mov	r2, #256
 870 00ca D9E7     		b	.L45
ARM GAS  C:\Users\HARTO_~1\AppData\Local\Temp\ccO3OpW0.s 			page 36


 871              	.L44:
 477:Drivers/STM32F1xx_HAL_Driver/Src/stm32f1xx_hal_dma.c **** 
 872              		.loc 1 477 5 discriminator 2 view .LVU274
 873 00cc 244A     		ldr	r2, .L74+8
 874 00ce 9342     		cmp	r3, r2
 875 00d0 24D0     		beq	.L59
 477:Drivers/STM32F1xx_HAL_Driver/Src/stm32f1xx_hal_dma.c **** 
 876              		.loc 1 477 5 discriminator 47 view .LVU275
 877 00d2 1432     		adds	r2, r2, #20
 878 00d4 9342     		cmp	r3, r2
 879 00d6 25D0     		beq	.L60
 477:Drivers/STM32F1xx_HAL_Driver/Src/stm32f1xx_hal_dma.c **** 
 880              		.loc 1 477 5 discriminator 49 view .LVU276
 881 00d8 1432     		adds	r2, r2, #20
 882 00da 9342     		cmp	r3, r2
 883 00dc 24D0     		beq	.L61
 477:Drivers/STM32F1xx_HAL_Driver/Src/stm32f1xx_hal_dma.c **** 
 884              		.loc 1 477 5 discriminator 51 view .LVU277
 885 00de 1432     		adds	r2, r2, #20
 886 00e0 9342     		cmp	r3, r2
 887 00e2 24D0     		beq	.L62
 477:Drivers/STM32F1xx_HAL_Driver/Src/stm32f1xx_hal_dma.c **** 
 888              		.loc 1 477 5 discriminator 53 view .LVU278
 889 00e4 1432     		adds	r2, r2, #20
 890 00e6 9342     		cmp	r3, r2
 891 00e8 24D0     		beq	.L63
 477:Drivers/STM32F1xx_HAL_Driver/Src/stm32f1xx_hal_dma.c **** 
 892              		.loc 1 477 5 discriminator 55 view .LVU279
 893 00ea 1432     		adds	r2, r2, #20
 894 00ec 9342     		cmp	r3, r2
 895 00ee 24D0     		beq	.L64
 477:Drivers/STM32F1xx_HAL_Driver/Src/stm32f1xx_hal_dma.c **** 
 896              		.loc 1 477 5 discriminator 57 view .LVU280
 897 00f0 1432     		adds	r2, r2, #20
 898 00f2 9342     		cmp	r3, r2
 899 00f4 24D0     		beq	.L65
 477:Drivers/STM32F1xx_HAL_Driver/Src/stm32f1xx_hal_dma.c **** 
 900              		.loc 1 477 5 discriminator 59 view .LVU281
 901 00f6 02F56272 		add	r2, r2, #904
 902 00fa 9342     		cmp	r3, r2
 903 00fc 23D0     		beq	.L66
 477:Drivers/STM32F1xx_HAL_Driver/Src/stm32f1xx_hal_dma.c **** 
 904              		.loc 1 477 5 discriminator 61 view .LVU282
 905 00fe 1432     		adds	r2, r2, #20
 906 0100 9342     		cmp	r3, r2
 907 0102 22D0     		beq	.L67
 477:Drivers/STM32F1xx_HAL_Driver/Src/stm32f1xx_hal_dma.c **** 
 908              		.loc 1 477 5 discriminator 63 view .LVU283
 909 0104 1432     		adds	r2, r2, #20
 910 0106 9342     		cmp	r3, r2
 911 0108 21D0     		beq	.L68
 477:Drivers/STM32F1xx_HAL_Driver/Src/stm32f1xx_hal_dma.c **** 
 912              		.loc 1 477 5 discriminator 65 view .LVU284
 913 010a 1432     		adds	r2, r2, #20
 914 010c 9342     		cmp	r3, r2
 915 010e 02D0     		beq	.L73
 477:Drivers/STM32F1xx_HAL_Driver/Src/stm32f1xx_hal_dma.c **** 
ARM GAS  C:\Users\HARTO_~1\AppData\Local\Temp\ccO3OpW0.s 			page 37


 916              		.loc 1 477 5 view .LVU285
 917 0110 4FF48032 		mov	r2, #65536
 918 0114 03E0     		b	.L47
 919              	.L73:
 920 0116 4FF48052 		mov	r2, #4096
 921 011a 00E0     		b	.L47
 922              	.L59:
 923 011c 0122     		movs	r2, #1
 924              	.L47:
 477:Drivers/STM32F1xx_HAL_Driver/Src/stm32f1xx_hal_dma.c **** 
 925              		.loc 1 477 5 discriminator 90 view .LVU286
 926 011e 114B     		ldr	r3, .L74+12
 927 0120 5A60     		str	r2, [r3, #4]
 928 0122 AFE7     		b	.L46
 929              	.L60:
 477:Drivers/STM32F1xx_HAL_Driver/Src/stm32f1xx_hal_dma.c **** 
 930              		.loc 1 477 5 view .LVU287
 931 0124 1022     		movs	r2, #16
 932 0126 FAE7     		b	.L47
 933              	.L61:
 934 0128 4FF48072 		mov	r2, #256
 935 012c F7E7     		b	.L47
 936              	.L62:
 937 012e 4FF48052 		mov	r2, #4096
 938 0132 F4E7     		b	.L47
 939              	.L63:
 940 0134 4FF48032 		mov	r2, #65536
 941 0138 F1E7     		b	.L47
 942              	.L64:
 943 013a 4FF48012 		mov	r2, #1048576
 944 013e EEE7     		b	.L47
 945              	.L65:
 946 0140 4FF08072 		mov	r2, #16777216
 947 0144 EBE7     		b	.L47
 948              	.L66:
 949 0146 0122     		movs	r2, #1
 950 0148 E9E7     		b	.L47
 951              	.L67:
 952 014a 1022     		movs	r2, #16
 953 014c E7E7     		b	.L47
 954              	.L68:
 955 014e 4FF48072 		mov	r2, #256
 956 0152 E4E7     		b	.L47
 957              	.L70:
 459:Drivers/STM32F1xx_HAL_Driver/Src/stm32f1xx_hal_dma.c ****   
 958              		.loc 1 459 21 view .LVU288
 959 0154 0020     		movs	r0, #0
 960              	.LVL50:
 459:Drivers/STM32F1xx_HAL_Driver/Src/stm32f1xx_hal_dma.c ****   
 961              		.loc 1 459 21 view .LVU289
 962 0156 5BE7     		b	.L43
 963              	.L75:
 964              		.align	2
 965              	.L74:
 966 0158 80000240 		.word	1073873024
 967 015c 00040240 		.word	1073873920
 968 0160 08000240 		.word	1073872904
ARM GAS  C:\Users\HARTO_~1\AppData\Local\Temp\ccO3OpW0.s 			page 38


 969 0164 00000240 		.word	1073872896
 970              		.cfi_endproc
 971              	.LFE70:
 973              		.section	.text.HAL_DMA_PollForTransfer,"ax",%progbits
 974              		.align	1
 975              		.global	HAL_DMA_PollForTransfer
 976              		.syntax unified
 977              		.thumb
 978              		.thumb_func
 979              		.fpu softvfp
 981              	HAL_DMA_PollForTransfer:
 982              	.LVL51:
 983              	.LFB71:
 503:Drivers/STM32F1xx_HAL_Driver/Src/stm32f1xx_hal_dma.c ****   uint32_t temp;
 984              		.loc 1 503 1 is_stmt 1 view -0
 985              		.cfi_startproc
 986              		@ args = 0, pretend = 0, frame = 0
 987              		@ frame_needed = 0, uses_anonymous_args = 0
 504:Drivers/STM32F1xx_HAL_Driver/Src/stm32f1xx_hal_dma.c ****   uint32_t tickstart = 0U;
 988              		.loc 1 504 3 view .LVU291
 505:Drivers/STM32F1xx_HAL_Driver/Src/stm32f1xx_hal_dma.c **** 
 989              		.loc 1 505 3 view .LVU292
 507:Drivers/STM32F1xx_HAL_Driver/Src/stm32f1xx_hal_dma.c ****   {
 990              		.loc 1 507 3 view .LVU293
 507:Drivers/STM32F1xx_HAL_Driver/Src/stm32f1xx_hal_dma.c ****   {
 991              		.loc 1 507 32 is_stmt 0 view .LVU294
 992 0000 90F82130 		ldrb	r3, [r0, #33]	@ zero_extendqisi2
 507:Drivers/STM32F1xx_HAL_Driver/Src/stm32f1xx_hal_dma.c ****   {
 993              		.loc 1 507 5 view .LVU295
 994 0004 022B     		cmp	r3, #2
 995 0006 06D0     		beq	.L77
 510:Drivers/STM32F1xx_HAL_Driver/Src/stm32f1xx_hal_dma.c ****     __HAL_UNLOCK(hdma);
 996              		.loc 1 510 5 is_stmt 1 view .LVU296
 510:Drivers/STM32F1xx_HAL_Driver/Src/stm32f1xx_hal_dma.c ****     __HAL_UNLOCK(hdma);
 997              		.loc 1 510 21 is_stmt 0 view .LVU297
 998 0008 0423     		movs	r3, #4
 999 000a 8363     		str	r3, [r0, #56]
 511:Drivers/STM32F1xx_HAL_Driver/Src/stm32f1xx_hal_dma.c ****     return HAL_ERROR;
 1000              		.loc 1 511 5 is_stmt 1 view .LVU298
 511:Drivers/STM32F1xx_HAL_Driver/Src/stm32f1xx_hal_dma.c ****     return HAL_ERROR;
 1001              		.loc 1 511 5 view .LVU299
 1002 000c 0023     		movs	r3, #0
 1003 000e 80F82030 		strb	r3, [r0, #32]
 512:Drivers/STM32F1xx_HAL_Driver/Src/stm32f1xx_hal_dma.c ****   }
 1004              		.loc 1 512 5 view .LVU300
 512:Drivers/STM32F1xx_HAL_Driver/Src/stm32f1xx_hal_dma.c ****   }
 1005              		.loc 1 512 12 is_stmt 0 view .LVU301
 1006 0012 0120     		movs	r0, #1
 1007              	.LVL52:
 595:Drivers/STM32F1xx_HAL_Driver/Src/stm32f1xx_hal_dma.c **** 
 1008              		.loc 1 595 1 view .LVU302
 1009 0014 7047     		bx	lr
 1010              	.LVL53:
 1011              	.L77:
 503:Drivers/STM32F1xx_HAL_Driver/Src/stm32f1xx_hal_dma.c ****   uint32_t temp;
 1012              		.loc 1 503 1 view .LVU303
 1013 0016 2DE9F041 		push	{r4, r5, r6, r7, r8, lr}
ARM GAS  C:\Users\HARTO_~1\AppData\Local\Temp\ccO3OpW0.s 			page 39


 1014              	.LCFI10:
 1015              		.cfi_def_cfa_offset 24
 1016              		.cfi_offset 4, -24
 1017              		.cfi_offset 5, -20
 1018              		.cfi_offset 6, -16
 1019              		.cfi_offset 7, -12
 1020              		.cfi_offset 8, -8
 1021              		.cfi_offset 14, -4
 516:Drivers/STM32F1xx_HAL_Driver/Src/stm32f1xx_hal_dma.c ****   {
 1022              		.loc 1 516 3 is_stmt 1 view .LVU304
 516:Drivers/STM32F1xx_HAL_Driver/Src/stm32f1xx_hal_dma.c ****   {
 1023              		.loc 1 516 21 is_stmt 0 view .LVU305
 1024 001a 0368     		ldr	r3, [r0]
 516:Drivers/STM32F1xx_HAL_Driver/Src/stm32f1xx_hal_dma.c ****   {
 1025              		.loc 1 516 31 view .LVU306
 1026 001c 1C68     		ldr	r4, [r3]
 516:Drivers/STM32F1xx_HAL_Driver/Src/stm32f1xx_hal_dma.c ****   {
 1027              		.loc 1 516 6 view .LVU307
 1028 001e 14F0200F 		tst	r4, #32
 1029 0022 25D1     		bne	.L193
 523:Drivers/STM32F1xx_HAL_Driver/Src/stm32f1xx_hal_dma.c ****   {
 1030              		.loc 1 523 3 is_stmt 1 view .LVU308
 523:Drivers/STM32F1xx_HAL_Driver/Src/stm32f1xx_hal_dma.c ****   {
 1031              		.loc 1 523 5 is_stmt 0 view .LVU309
 1032 0024 69BB     		cbnz	r1, .L80
 526:Drivers/STM32F1xx_HAL_Driver/Src/stm32f1xx_hal_dma.c ****   }
 1033              		.loc 1 526 5 is_stmt 1 view .LVU310
 526:Drivers/STM32F1xx_HAL_Driver/Src/stm32f1xx_hal_dma.c ****   }
 1034              		.loc 1 526 12 is_stmt 0 view .LVU311
 1035 0026 B14C     		ldr	r4, .L205
 1036 0028 A342     		cmp	r3, r4
 1037 002a 52D0     		beq	.L102
 526:Drivers/STM32F1xx_HAL_Driver/Src/stm32f1xx_hal_dma.c ****   }
 1038              		.loc 1 526 12 discriminator 1 view .LVU312
 1039 002c 1434     		adds	r4, r4, #20
 1040 002e A342     		cmp	r3, r4
 1041 0030 57D0     		beq	.L103
 526:Drivers/STM32F1xx_HAL_Driver/Src/stm32f1xx_hal_dma.c ****   }
 1042              		.loc 1 526 12 discriminator 3 view .LVU313
 1043 0032 1434     		adds	r4, r4, #20
 1044 0034 A342     		cmp	r3, r4
 1045 0036 56D0     		beq	.L104
 526:Drivers/STM32F1xx_HAL_Driver/Src/stm32f1xx_hal_dma.c ****   }
 1046              		.loc 1 526 12 discriminator 5 view .LVU314
 1047 0038 1434     		adds	r4, r4, #20
 1048 003a A342     		cmp	r3, r4
 1049 003c 56D0     		beq	.L105
 526:Drivers/STM32F1xx_HAL_Driver/Src/stm32f1xx_hal_dma.c ****   }
 1050              		.loc 1 526 12 discriminator 7 view .LVU315
 1051 003e 1434     		adds	r4, r4, #20
 1052 0040 A342     		cmp	r3, r4
 1053 0042 56D0     		beq	.L106
 526:Drivers/STM32F1xx_HAL_Driver/Src/stm32f1xx_hal_dma.c ****   }
 1054              		.loc 1 526 12 discriminator 9 view .LVU316
 1055 0044 1434     		adds	r4, r4, #20
 1056 0046 A342     		cmp	r3, r4
 1057 0048 56D0     		beq	.L107
ARM GAS  C:\Users\HARTO_~1\AppData\Local\Temp\ccO3OpW0.s 			page 40


 526:Drivers/STM32F1xx_HAL_Driver/Src/stm32f1xx_hal_dma.c ****   }
 1058              		.loc 1 526 12 discriminator 11 view .LVU317
 1059 004a 1434     		adds	r4, r4, #20
 1060 004c A342     		cmp	r3, r4
 1061 004e 56D0     		beq	.L108
 526:Drivers/STM32F1xx_HAL_Driver/Src/stm32f1xx_hal_dma.c ****   }
 1062              		.loc 1 526 12 discriminator 13 view .LVU318
 1063 0050 04F56274 		add	r4, r4, #904
 1064 0054 A342     		cmp	r3, r4
 1065 0056 55D0     		beq	.L109
 526:Drivers/STM32F1xx_HAL_Driver/Src/stm32f1xx_hal_dma.c ****   }
 1066              		.loc 1 526 12 discriminator 15 view .LVU319
 1067 0058 1434     		adds	r4, r4, #20
 1068 005a A342     		cmp	r3, r4
 1069 005c 54D0     		beq	.L110
 526:Drivers/STM32F1xx_HAL_Driver/Src/stm32f1xx_hal_dma.c ****   }
 1070              		.loc 1 526 12 discriminator 17 view .LVU320
 1071 005e 1434     		adds	r4, r4, #20
 1072 0060 A342     		cmp	r3, r4
 1073 0062 53D0     		beq	.L111
 526:Drivers/STM32F1xx_HAL_Driver/Src/stm32f1xx_hal_dma.c ****   }
 1074              		.loc 1 526 12 discriminator 19 view .LVU321
 1075 0064 1434     		adds	r4, r4, #20
 1076 0066 A342     		cmp	r3, r4
 1077 0068 08D0     		beq	.L194
 526:Drivers/STM32F1xx_HAL_Driver/Src/stm32f1xx_hal_dma.c ****   }
 1078              		.loc 1 526 12 view .LVU322
 1079 006a 4FF40036 		mov	r6, #131072
 1080 006e 31E0     		b	.L81
 1081              	.L193:
 518:Drivers/STM32F1xx_HAL_Driver/Src/stm32f1xx_hal_dma.c ****     return HAL_ERROR;
 1082              		.loc 1 518 5 is_stmt 1 view .LVU323
 518:Drivers/STM32F1xx_HAL_Driver/Src/stm32f1xx_hal_dma.c ****     return HAL_ERROR;
 1083              		.loc 1 518 21 is_stmt 0 view .LVU324
 1084 0070 4FF48073 		mov	r3, #256
 1085 0074 8363     		str	r3, [r0, #56]
 519:Drivers/STM32F1xx_HAL_Driver/Src/stm32f1xx_hal_dma.c ****   }
 1086              		.loc 1 519 5 is_stmt 1 view .LVU325
 519:Drivers/STM32F1xx_HAL_Driver/Src/stm32f1xx_hal_dma.c ****   }
 1087              		.loc 1 519 12 is_stmt 0 view .LVU326
 1088 0076 0120     		movs	r0, #1
 1089              	.LVL54:
 1090              	.L78:
 595:Drivers/STM32F1xx_HAL_Driver/Src/stm32f1xx_hal_dma.c **** 
 1091              		.loc 1 595 1 view .LVU327
 1092 0078 BDE8F081 		pop	{r4, r5, r6, r7, r8, pc}
 1093              	.LVL55:
 1094              	.L194:
 526:Drivers/STM32F1xx_HAL_Driver/Src/stm32f1xx_hal_dma.c ****   }
 1095              		.loc 1 526 12 view .LVU328
 1096 007c 4FF40056 		mov	r6, #8192
 1097 0080 28E0     		b	.L81
 1098              	.L80:
 531:Drivers/STM32F1xx_HAL_Driver/Src/stm32f1xx_hal_dma.c ****   }
 1099              		.loc 1 531 5 is_stmt 1 view .LVU329
 531:Drivers/STM32F1xx_HAL_Driver/Src/stm32f1xx_hal_dma.c ****   }
 1100              		.loc 1 531 12 is_stmt 0 view .LVU330
ARM GAS  C:\Users\HARTO_~1\AppData\Local\Temp\ccO3OpW0.s 			page 41


 1101 0082 9A4C     		ldr	r4, .L205
 1102 0084 A342     		cmp	r3, r4
 1103 0086 44D0     		beq	.L113
 531:Drivers/STM32F1xx_HAL_Driver/Src/stm32f1xx_hal_dma.c ****   }
 1104              		.loc 1 531 12 discriminator 1 view .LVU331
 1105 0088 1434     		adds	r4, r4, #20
 1106 008a A342     		cmp	r3, r4
 1107 008c 43D0     		beq	.L114
 531:Drivers/STM32F1xx_HAL_Driver/Src/stm32f1xx_hal_dma.c ****   }
 1108              		.loc 1 531 12 discriminator 3 view .LVU332
 1109 008e 1434     		adds	r4, r4, #20
 1110 0090 A342     		cmp	r3, r4
 1111 0092 42D0     		beq	.L115
 531:Drivers/STM32F1xx_HAL_Driver/Src/stm32f1xx_hal_dma.c ****   }
 1112              		.loc 1 531 12 discriminator 5 view .LVU333
 1113 0094 1434     		adds	r4, r4, #20
 1114 0096 A342     		cmp	r3, r4
 1115 0098 42D0     		beq	.L116
 531:Drivers/STM32F1xx_HAL_Driver/Src/stm32f1xx_hal_dma.c ****   }
 1116              		.loc 1 531 12 discriminator 7 view .LVU334
 1117 009a 1434     		adds	r4, r4, #20
 1118 009c A342     		cmp	r3, r4
 1119 009e 42D0     		beq	.L117
 531:Drivers/STM32F1xx_HAL_Driver/Src/stm32f1xx_hal_dma.c ****   }
 1120              		.loc 1 531 12 discriminator 9 view .LVU335
 1121 00a0 1434     		adds	r4, r4, #20
 1122 00a2 A342     		cmp	r3, r4
 1123 00a4 42D0     		beq	.L118
 531:Drivers/STM32F1xx_HAL_Driver/Src/stm32f1xx_hal_dma.c ****   }
 1124              		.loc 1 531 12 discriminator 11 view .LVU336
 1125 00a6 1434     		adds	r4, r4, #20
 1126 00a8 A342     		cmp	r3, r4
 1127 00aa 42D0     		beq	.L119
 531:Drivers/STM32F1xx_HAL_Driver/Src/stm32f1xx_hal_dma.c ****   }
 1128              		.loc 1 531 12 discriminator 13 view .LVU337
 1129 00ac 04F56274 		add	r4, r4, #904
 1130 00b0 A342     		cmp	r3, r4
 1131 00b2 41D0     		beq	.L120
 531:Drivers/STM32F1xx_HAL_Driver/Src/stm32f1xx_hal_dma.c ****   }
 1132              		.loc 1 531 12 discriminator 15 view .LVU338
 1133 00b4 1434     		adds	r4, r4, #20
 1134 00b6 A342     		cmp	r3, r4
 1135 00b8 40D0     		beq	.L121
 531:Drivers/STM32F1xx_HAL_Driver/Src/stm32f1xx_hal_dma.c ****   }
 1136              		.loc 1 531 12 discriminator 17 view .LVU339
 1137 00ba 1434     		adds	r4, r4, #20
 1138 00bc A342     		cmp	r3, r4
 1139 00be 3FD0     		beq	.L122
 531:Drivers/STM32F1xx_HAL_Driver/Src/stm32f1xx_hal_dma.c ****   }
 1140              		.loc 1 531 12 discriminator 19 view .LVU340
 1141 00c0 1434     		adds	r4, r4, #20
 1142 00c2 A342     		cmp	r3, r4
 1143 00c4 02D0     		beq	.L195
 531:Drivers/STM32F1xx_HAL_Driver/Src/stm32f1xx_hal_dma.c ****   }
 1144              		.loc 1 531 12 view .LVU341
 1145 00c6 4FF48026 		mov	r6, #262144
 1146 00ca 03E0     		b	.L81
ARM GAS  C:\Users\HARTO_~1\AppData\Local\Temp\ccO3OpW0.s 			page 42


 1147              	.L195:
 1148 00cc 4FF48046 		mov	r6, #16384
 1149 00d0 00E0     		b	.L81
 1150              	.L102:
 526:Drivers/STM32F1xx_HAL_Driver/Src/stm32f1xx_hal_dma.c ****   }
 1151              		.loc 1 526 12 view .LVU342
 1152 00d2 0226     		movs	r6, #2
 1153              	.L81:
 1154 00d4 1546     		mov	r5, r2
 1155 00d6 0F46     		mov	r7, r1
 1156 00d8 0446     		mov	r4, r0
 1157              	.LVL56:
 535:Drivers/STM32F1xx_HAL_Driver/Src/stm32f1xx_hal_dma.c **** 
 1158              		.loc 1 535 3 is_stmt 1 view .LVU343
 535:Drivers/STM32F1xx_HAL_Driver/Src/stm32f1xx_hal_dma.c **** 
 1159              		.loc 1 535 15 is_stmt 0 view .LVU344
 1160 00da FFF7FEFF 		bl	HAL_GetTick
 1161              	.LVL57:
 535:Drivers/STM32F1xx_HAL_Driver/Src/stm32f1xx_hal_dma.c **** 
 1162              		.loc 1 535 15 view .LVU345
 1163 00de 8046     		mov	r8, r0
 1164              	.LVL58:
 537:Drivers/STM32F1xx_HAL_Driver/Src/stm32f1xx_hal_dma.c ****   {
 1165              		.loc 1 537 3 is_stmt 1 view .LVU346
 537:Drivers/STM32F1xx_HAL_Driver/Src/stm32f1xx_hal_dma.c ****   {
 1166              		.loc 1 537 8 is_stmt 0 view .LVU347
 1167 00e0 40E0     		b	.L88
 1168              	.LVL59:
 1169              	.L103:
 526:Drivers/STM32F1xx_HAL_Driver/Src/stm32f1xx_hal_dma.c ****   }
 1170              		.loc 1 526 12 view .LVU348
 1171 00e2 2026     		movs	r6, #32
 1172 00e4 F6E7     		b	.L81
 1173              	.L104:
 1174 00e6 4FF40076 		mov	r6, #512
 1175 00ea F3E7     		b	.L81
 1176              	.L105:
 1177 00ec 4FF40056 		mov	r6, #8192
 1178 00f0 F0E7     		b	.L81
 1179              	.L106:
 1180 00f2 4FF40036 		mov	r6, #131072
 1181 00f6 EDE7     		b	.L81
 1182              	.L107:
 1183 00f8 4FF40016 		mov	r6, #2097152
 1184 00fc EAE7     		b	.L81
 1185              	.L108:
 1186 00fe 4FF00076 		mov	r6, #33554432
 1187 0102 E7E7     		b	.L81
 1188              	.L109:
 1189 0104 0226     		movs	r6, #2
 1190 0106 E5E7     		b	.L81
 1191              	.L110:
 1192 0108 2026     		movs	r6, #32
 1193 010a E3E7     		b	.L81
 1194              	.L111:
 1195 010c 4FF40076 		mov	r6, #512
 1196 0110 E0E7     		b	.L81
ARM GAS  C:\Users\HARTO_~1\AppData\Local\Temp\ccO3OpW0.s 			page 43


 1197              	.L113:
 531:Drivers/STM32F1xx_HAL_Driver/Src/stm32f1xx_hal_dma.c ****   }
 1198              		.loc 1 531 12 view .LVU349
 1199 0112 0426     		movs	r6, #4
 1200 0114 DEE7     		b	.L81
 1201              	.L114:
 1202 0116 4026     		movs	r6, #64
 1203 0118 DCE7     		b	.L81
 1204              	.L115:
 1205 011a 4FF48066 		mov	r6, #1024
 1206 011e D9E7     		b	.L81
 1207              	.L116:
 1208 0120 4FF48046 		mov	r6, #16384
 1209 0124 D6E7     		b	.L81
 1210              	.L117:
 1211 0126 4FF48026 		mov	r6, #262144
 1212 012a D3E7     		b	.L81
 1213              	.L118:
 1214 012c 4FF48006 		mov	r6, #4194304
 1215 0130 D0E7     		b	.L81
 1216              	.L119:
 1217 0132 4FF08066 		mov	r6, #67108864
 1218 0136 CDE7     		b	.L81
 1219              	.L120:
 1220 0138 0426     		movs	r6, #4
 1221 013a CBE7     		b	.L81
 1222              	.L121:
 1223 013c 4026     		movs	r6, #64
 1224 013e C9E7     		b	.L81
 1225              	.L122:
 1226 0140 4FF48066 		mov	r6, #1024
 1227 0144 C6E7     		b	.L81
 1228              	.LVL60:
 1229              	.L199:
 539:Drivers/STM32F1xx_HAL_Driver/Src/stm32f1xx_hal_dma.c ****     {
 1230              		.loc 1 539 9 view .LVU350
 1231 0146 4FF40043 		mov	r3, #32768
 1232 014a 00E0     		b	.L84
 1233              	.L124:
 1234 014c 0823     		movs	r3, #8
 1235              	.L84:
 539:Drivers/STM32F1xx_HAL_Driver/Src/stm32f1xx_hal_dma.c ****     {
 1236              		.loc 1 539 69 discriminator 46 view .LVU351
 1237 014e 1A42     		tst	r2, r3
 1238 0150 14BF     		ite	ne
 1239 0152 0123     		movne	r3, #1
 1240 0154 0023     		moveq	r3, #0
 1241              	.L85:
 539:Drivers/STM32F1xx_HAL_Driver/Src/stm32f1xx_hal_dma.c ****     {
 1242              		.loc 1 539 7 discriminator 92 view .LVU352
 1243 0156 002B     		cmp	r3, #0
 1244 0158 40F09E80 		bne	.L196
 558:Drivers/STM32F1xx_HAL_Driver/Src/stm32f1xx_hal_dma.c ****     {
 1245              		.loc 1 558 5 is_stmt 1 view .LVU353
 558:Drivers/STM32F1xx_HAL_Driver/Src/stm32f1xx_hal_dma.c ****     {
 1246              		.loc 1 558 7 is_stmt 0 view .LVU354
 1247 015c B5F1FF3F 		cmp	r5, #-1
ARM GAS  C:\Users\HARTO_~1\AppData\Local\Temp\ccO3OpW0.s 			page 44


 1248 0160 40F0A980 		bne	.L197
 1249              	.L88:
 537:Drivers/STM32F1xx_HAL_Driver/Src/stm32f1xx_hal_dma.c ****   {
 1250              		.loc 1 537 9 view .LVU355
 1251 0164 2368     		ldr	r3, [r4]
 1252 0166 1A46     		mov	r2, r3
 537:Drivers/STM32F1xx_HAL_Driver/Src/stm32f1xx_hal_dma.c ****   {
 1253              		.loc 1 537 40 view .LVU356
 1254 0168 6148     		ldr	r0, .L205+4
 1255 016a 8342     		cmp	r3, r0
 1256 016c 40F2B680 		bls	.L90
 537:Drivers/STM32F1xx_HAL_Driver/Src/stm32f1xx_hal_dma.c ****   {
 1257              		.loc 1 537 9 discriminator 1 view .LVU357
 1258 0170 6049     		ldr	r1, .L205+8
 1259 0172 0968     		ldr	r1, [r1]
 537:Drivers/STM32F1xx_HAL_Driver/Src/stm32f1xx_hal_dma.c ****   {
 1260              		.loc 1 537 40 discriminator 1 view .LVU358
 1261 0174 3142     		tst	r1, r6
 1262 0176 0CBF     		ite	eq
 1263 0178 0120     		moveq	r0, #1
 1264 017a 0020     		movne	r0, #0
 1265              	.L91:
 537:Drivers/STM32F1xx_HAL_Driver/Src/stm32f1xx_hal_dma.c ****   {
 1266              		.loc 1 537 8 discriminator 4 view .LVU359
 1267 017c 0028     		cmp	r0, #0
 1268 017e 00F0BD80 		beq	.L198
 539:Drivers/STM32F1xx_HAL_Driver/Src/stm32f1xx_hal_dma.c ****     {
 1269              		.loc 1 539 5 is_stmt 1 view .LVU360
 539:Drivers/STM32F1xx_HAL_Driver/Src/stm32f1xx_hal_dma.c ****     {
 1270              		.loc 1 539 69 is_stmt 0 view .LVU361
 1271 0182 5B4A     		ldr	r2, .L205+4
 1272 0184 9342     		cmp	r3, r2
 1273 0186 3FD9     		bls	.L83
 539:Drivers/STM32F1xx_HAL_Driver/Src/stm32f1xx_hal_dma.c ****     {
 1274              		.loc 1 539 9 discriminator 1 view .LVU362
 1275 0188 02F56072 		add	r2, r2, #896
 1276 018c 1268     		ldr	r2, [r2]
 1277 018e 5749     		ldr	r1, .L205
 1278 0190 8B42     		cmp	r3, r1
 1279 0192 DBD0     		beq	.L124
 539:Drivers/STM32F1xx_HAL_Driver/Src/stm32f1xx_hal_dma.c ****     {
 1280              		.loc 1 539 9 discriminator 3 view .LVU363
 1281 0194 1431     		adds	r1, r1, #20
 1282 0196 8B42     		cmp	r3, r1
 1283 0198 1ED0     		beq	.L125
 539:Drivers/STM32F1xx_HAL_Driver/Src/stm32f1xx_hal_dma.c ****     {
 1284              		.loc 1 539 9 discriminator 5 view .LVU364
 1285 019a 1431     		adds	r1, r1, #20
 1286 019c 8B42     		cmp	r3, r1
 1287 019e 1DD0     		beq	.L126
 539:Drivers/STM32F1xx_HAL_Driver/Src/stm32f1xx_hal_dma.c ****     {
 1288              		.loc 1 539 9 discriminator 7 view .LVU365
 1289 01a0 1431     		adds	r1, r1, #20
 1290 01a2 8B42     		cmp	r3, r1
 1291 01a4 1DD0     		beq	.L127
 539:Drivers/STM32F1xx_HAL_Driver/Src/stm32f1xx_hal_dma.c ****     {
 1292              		.loc 1 539 9 discriminator 9 view .LVU366
ARM GAS  C:\Users\HARTO_~1\AppData\Local\Temp\ccO3OpW0.s 			page 45


 1293 01a6 1431     		adds	r1, r1, #20
 1294 01a8 8B42     		cmp	r3, r1
 1295 01aa 1DD0     		beq	.L128
 539:Drivers/STM32F1xx_HAL_Driver/Src/stm32f1xx_hal_dma.c ****     {
 1296              		.loc 1 539 9 discriminator 11 view .LVU367
 1297 01ac 1431     		adds	r1, r1, #20
 1298 01ae 8B42     		cmp	r3, r1
 1299 01b0 1DD0     		beq	.L129
 539:Drivers/STM32F1xx_HAL_Driver/Src/stm32f1xx_hal_dma.c ****     {
 1300              		.loc 1 539 9 discriminator 13 view .LVU368
 1301 01b2 1431     		adds	r1, r1, #20
 1302 01b4 8B42     		cmp	r3, r1
 1303 01b6 1DD0     		beq	.L130
 539:Drivers/STM32F1xx_HAL_Driver/Src/stm32f1xx_hal_dma.c ****     {
 1304              		.loc 1 539 9 discriminator 15 view .LVU369
 1305 01b8 01F56271 		add	r1, r1, #904
 1306 01bc 8B42     		cmp	r3, r1
 1307 01be 1CD0     		beq	.L131
 539:Drivers/STM32F1xx_HAL_Driver/Src/stm32f1xx_hal_dma.c ****     {
 1308              		.loc 1 539 9 discriminator 17 view .LVU370
 1309 01c0 1431     		adds	r1, r1, #20
 1310 01c2 8B42     		cmp	r3, r1
 1311 01c4 1BD0     		beq	.L132
 539:Drivers/STM32F1xx_HAL_Driver/Src/stm32f1xx_hal_dma.c ****     {
 1312              		.loc 1 539 9 discriminator 19 view .LVU371
 1313 01c6 1431     		adds	r1, r1, #20
 1314 01c8 8B42     		cmp	r3, r1
 1315 01ca 1AD0     		beq	.L133
 539:Drivers/STM32F1xx_HAL_Driver/Src/stm32f1xx_hal_dma.c ****     {
 1316              		.loc 1 539 9 discriminator 21 view .LVU372
 1317 01cc 1431     		adds	r1, r1, #20
 1318 01ce 8B42     		cmp	r3, r1
 1319 01d0 B9D0     		beq	.L199
 539:Drivers/STM32F1xx_HAL_Driver/Src/stm32f1xx_hal_dma.c ****     {
 1320              		.loc 1 539 9 view .LVU373
 1321 01d2 4FF40023 		mov	r3, #524288
 1322 01d6 BAE7     		b	.L84
 1323              	.L125:
 1324 01d8 8023     		movs	r3, #128
 1325 01da B8E7     		b	.L84
 1326              	.L126:
 1327 01dc 4FF40063 		mov	r3, #2048
 1328 01e0 B5E7     		b	.L84
 1329              	.L127:
 1330 01e2 4FF40043 		mov	r3, #32768
 1331 01e6 B2E7     		b	.L84
 1332              	.L128:
 1333 01e8 4FF40023 		mov	r3, #524288
 1334 01ec AFE7     		b	.L84
 1335              	.L129:
 1336 01ee 4FF40003 		mov	r3, #8388608
 1337 01f2 ACE7     		b	.L84
 1338              	.L130:
 1339 01f4 4FF00063 		mov	r3, #134217728
 1340 01f8 A9E7     		b	.L84
 1341              	.L131:
 1342 01fa 0823     		movs	r3, #8
ARM GAS  C:\Users\HARTO_~1\AppData\Local\Temp\ccO3OpW0.s 			page 46


 1343 01fc A7E7     		b	.L84
 1344              	.L132:
 1345 01fe 8023     		movs	r3, #128
 1346 0200 A5E7     		b	.L84
 1347              	.L133:
 1348 0202 4FF40063 		mov	r3, #2048
 1349 0206 A2E7     		b	.L84
 1350              	.L83:
 539:Drivers/STM32F1xx_HAL_Driver/Src/stm32f1xx_hal_dma.c ****     {
 1351              		.loc 1 539 9 discriminator 2 view .LVU374
 1352 0208 3B4A     		ldr	r2, .L205+12
 1353 020a 1268     		ldr	r2, [r2]
 1354 020c 3749     		ldr	r1, .L205
 1355 020e 8B42     		cmp	r3, r1
 1356 0210 24D0     		beq	.L135
 539:Drivers/STM32F1xx_HAL_Driver/Src/stm32f1xx_hal_dma.c ****     {
 1357              		.loc 1 539 9 discriminator 48 view .LVU375
 1358 0212 1431     		adds	r1, r1, #20
 1359 0214 8B42     		cmp	r3, r1
 1360 0216 27D0     		beq	.L136
 539:Drivers/STM32F1xx_HAL_Driver/Src/stm32f1xx_hal_dma.c ****     {
 1361              		.loc 1 539 9 discriminator 50 view .LVU376
 1362 0218 1431     		adds	r1, r1, #20
 1363 021a 8B42     		cmp	r3, r1
 1364 021c 26D0     		beq	.L137
 539:Drivers/STM32F1xx_HAL_Driver/Src/stm32f1xx_hal_dma.c ****     {
 1365              		.loc 1 539 9 discriminator 52 view .LVU377
 1366 021e 1431     		adds	r1, r1, #20
 1367 0220 8B42     		cmp	r3, r1
 1368 0222 26D0     		beq	.L138
 539:Drivers/STM32F1xx_HAL_Driver/Src/stm32f1xx_hal_dma.c ****     {
 1369              		.loc 1 539 9 discriminator 54 view .LVU378
 1370 0224 1431     		adds	r1, r1, #20
 1371 0226 8B42     		cmp	r3, r1
 1372 0228 26D0     		beq	.L139
 539:Drivers/STM32F1xx_HAL_Driver/Src/stm32f1xx_hal_dma.c ****     {
 1373              		.loc 1 539 9 discriminator 56 view .LVU379
 1374 022a 1431     		adds	r1, r1, #20
 1375 022c 8B42     		cmp	r3, r1
 1376 022e 26D0     		beq	.L140
 539:Drivers/STM32F1xx_HAL_Driver/Src/stm32f1xx_hal_dma.c ****     {
 1377              		.loc 1 539 9 discriminator 58 view .LVU380
 1378 0230 1431     		adds	r1, r1, #20
 1379 0232 8B42     		cmp	r3, r1
 1380 0234 26D0     		beq	.L141
 539:Drivers/STM32F1xx_HAL_Driver/Src/stm32f1xx_hal_dma.c ****     {
 1381              		.loc 1 539 9 discriminator 60 view .LVU381
 1382 0236 01F56271 		add	r1, r1, #904
 1383 023a 8B42     		cmp	r3, r1
 1384 023c 25D0     		beq	.L142
 539:Drivers/STM32F1xx_HAL_Driver/Src/stm32f1xx_hal_dma.c ****     {
 1385              		.loc 1 539 9 discriminator 62 view .LVU382
 1386 023e 1431     		adds	r1, r1, #20
 1387 0240 8B42     		cmp	r3, r1
 1388 0242 24D0     		beq	.L143
 539:Drivers/STM32F1xx_HAL_Driver/Src/stm32f1xx_hal_dma.c ****     {
 1389              		.loc 1 539 9 discriminator 64 view .LVU383
ARM GAS  C:\Users\HARTO_~1\AppData\Local\Temp\ccO3OpW0.s 			page 47


 1390 0244 1431     		adds	r1, r1, #20
 1391 0246 8B42     		cmp	r3, r1
 1392 0248 23D0     		beq	.L144
 539:Drivers/STM32F1xx_HAL_Driver/Src/stm32f1xx_hal_dma.c ****     {
 1393              		.loc 1 539 9 discriminator 66 view .LVU384
 1394 024a 1431     		adds	r1, r1, #20
 1395 024c 8B42     		cmp	r3, r1
 1396 024e 02D0     		beq	.L200
 539:Drivers/STM32F1xx_HAL_Driver/Src/stm32f1xx_hal_dma.c ****     {
 1397              		.loc 1 539 9 view .LVU385
 1398 0250 4FF40023 		mov	r3, #524288
 1399 0254 03E0     		b	.L86
 1400              	.L200:
 1401 0256 4FF40043 		mov	r3, #32768
 1402 025a 00E0     		b	.L86
 1403              	.L135:
 1404 025c 0823     		movs	r3, #8
 1405              	.L86:
 539:Drivers/STM32F1xx_HAL_Driver/Src/stm32f1xx_hal_dma.c ****     {
 1406              		.loc 1 539 69 discriminator 91 view .LVU386
 1407 025e 1A42     		tst	r2, r3
 1408 0260 14BF     		ite	ne
 1409 0262 0123     		movne	r3, #1
 1410 0264 0023     		moveq	r3, #0
 1411 0266 76E7     		b	.L85
 1412              	.L136:
 539:Drivers/STM32F1xx_HAL_Driver/Src/stm32f1xx_hal_dma.c ****     {
 1413              		.loc 1 539 9 view .LVU387
 1414 0268 8023     		movs	r3, #128
 1415 026a F8E7     		b	.L86
 1416              	.L137:
 1417 026c 4FF40063 		mov	r3, #2048
 1418 0270 F5E7     		b	.L86
 1419              	.L138:
 1420 0272 4FF40043 		mov	r3, #32768
 1421 0276 F2E7     		b	.L86
 1422              	.L139:
 1423 0278 4FF40023 		mov	r3, #524288
 1424 027c EFE7     		b	.L86
 1425              	.L140:
 1426 027e 4FF40003 		mov	r3, #8388608
 1427 0282 ECE7     		b	.L86
 1428              	.L141:
 1429 0284 4FF00063 		mov	r3, #134217728
 1430 0288 E9E7     		b	.L86
 1431              	.L142:
 1432 028a 0823     		movs	r3, #8
 1433 028c E7E7     		b	.L86
 1434              	.L143:
 1435 028e 8023     		movs	r3, #128
 1436 0290 E5E7     		b	.L86
 1437              	.L144:
 1438 0292 4FF40063 		mov	r3, #2048
 1439 0296 E2E7     		b	.L86
 1440              	.L196:
 544:Drivers/STM32F1xx_HAL_Driver/Src/stm32f1xx_hal_dma.c **** 
 1441              		.loc 1 544 7 is_stmt 1 view .LVU388
ARM GAS  C:\Users\HARTO_~1\AppData\Local\Temp\ccO3OpW0.s 			page 48


 544:Drivers/STM32F1xx_HAL_Driver/Src/stm32f1xx_hal_dma.c **** 
 1442              		.loc 1 544 57 is_stmt 0 view .LVU389
 1443 0298 236C     		ldr	r3, [r4, #64]
 544:Drivers/STM32F1xx_HAL_Driver/Src/stm32f1xx_hal_dma.c **** 
 1444              		.loc 1 544 11 view .LVU390
 1445 029a E26B     		ldr	r2, [r4, #60]
 544:Drivers/STM32F1xx_HAL_Driver/Src/stm32f1xx_hal_dma.c **** 
 1446              		.loc 1 544 50 view .LVU391
 1447 029c 0120     		movs	r0, #1
 1448 029e 00FA03F3 		lsl	r3, r0, r3
 544:Drivers/STM32F1xx_HAL_Driver/Src/stm32f1xx_hal_dma.c **** 
 1449              		.loc 1 544 34 view .LVU392
 1450 02a2 5360     		str	r3, [r2, #4]
 547:Drivers/STM32F1xx_HAL_Driver/Src/stm32f1xx_hal_dma.c **** 
 1451              		.loc 1 547 7 is_stmt 1 view .LVU393
 1452 02a4 A36B     		ldr	r3, [r4, #56]
 1453 02a6 0343     		orrs	r3, r3, r0
 1454 02a8 A363     		str	r3, [r4, #56]
 550:Drivers/STM32F1xx_HAL_Driver/Src/stm32f1xx_hal_dma.c **** 
 1455              		.loc 1 550 7 view .LVU394
 550:Drivers/STM32F1xx_HAL_Driver/Src/stm32f1xx_hal_dma.c **** 
 1456              		.loc 1 550 18 is_stmt 0 view .LVU395
 1457 02aa 84F82100 		strb	r0, [r4, #33]
 553:Drivers/STM32F1xx_HAL_Driver/Src/stm32f1xx_hal_dma.c **** 
 1458              		.loc 1 553 7 is_stmt 1 view .LVU396
 553:Drivers/STM32F1xx_HAL_Driver/Src/stm32f1xx_hal_dma.c **** 
 1459              		.loc 1 553 7 view .LVU397
 1460 02ae 0023     		movs	r3, #0
 1461 02b0 84F82030 		strb	r3, [r4, #32]
 555:Drivers/STM32F1xx_HAL_Driver/Src/stm32f1xx_hal_dma.c ****     }
 1462              		.loc 1 555 7 view .LVU398
 555:Drivers/STM32F1xx_HAL_Driver/Src/stm32f1xx_hal_dma.c ****     }
 1463              		.loc 1 555 14 is_stmt 0 view .LVU399
 1464 02b4 E0E6     		b	.L78
 1465              	.L197:
 560:Drivers/STM32F1xx_HAL_Driver/Src/stm32f1xx_hal_dma.c ****       {
 1466              		.loc 1 560 7 is_stmt 1 view .LVU400
 560:Drivers/STM32F1xx_HAL_Driver/Src/stm32f1xx_hal_dma.c ****       {
 1467              		.loc 1 560 9 is_stmt 0 view .LVU401
 1468 02b6 35B1     		cbz	r5, .L89
 560:Drivers/STM32F1xx_HAL_Driver/Src/stm32f1xx_hal_dma.c ****       {
 1469              		.loc 1 560 31 discriminator 1 view .LVU402
 1470 02b8 FFF7FEFF 		bl	HAL_GetTick
 1471              	.LVL61:
 560:Drivers/STM32F1xx_HAL_Driver/Src/stm32f1xx_hal_dma.c ****       {
 1472              		.loc 1 560 45 discriminator 1 view .LVU403
 1473 02bc A0EB0800 		sub	r0, r0, r8
 560:Drivers/STM32F1xx_HAL_Driver/Src/stm32f1xx_hal_dma.c ****       {
 1474              		.loc 1 560 26 discriminator 1 view .LVU404
 1475 02c0 A842     		cmp	r0, r5
 1476 02c2 7FF64FAF 		bls	.L88
 1477              	.L89:
 563:Drivers/STM32F1xx_HAL_Driver/Src/stm32f1xx_hal_dma.c **** 
 1478              		.loc 1 563 9 is_stmt 1 view .LVU405
 1479 02c6 A36B     		ldr	r3, [r4, #56]
 1480 02c8 43F02003 		orr	r3, r3, #32
 1481 02cc A363     		str	r3, [r4, #56]
ARM GAS  C:\Users\HARTO_~1\AppData\Local\Temp\ccO3OpW0.s 			page 49


 566:Drivers/STM32F1xx_HAL_Driver/Src/stm32f1xx_hal_dma.c **** 
 1482              		.loc 1 566 9 view .LVU406
 566:Drivers/STM32F1xx_HAL_Driver/Src/stm32f1xx_hal_dma.c **** 
 1483              		.loc 1 566 21 is_stmt 0 view .LVU407
 1484 02ce 0120     		movs	r0, #1
 1485 02d0 84F82100 		strb	r0, [r4, #33]
 569:Drivers/STM32F1xx_HAL_Driver/Src/stm32f1xx_hal_dma.c **** 
 1486              		.loc 1 569 9 is_stmt 1 view .LVU408
 569:Drivers/STM32F1xx_HAL_Driver/Src/stm32f1xx_hal_dma.c **** 
 1487              		.loc 1 569 9 view .LVU409
 1488 02d4 0023     		movs	r3, #0
 1489 02d6 84F82030 		strb	r3, [r4, #32]
 571:Drivers/STM32F1xx_HAL_Driver/Src/stm32f1xx_hal_dma.c ****       }
 1490              		.loc 1 571 9 view .LVU410
 571:Drivers/STM32F1xx_HAL_Driver/Src/stm32f1xx_hal_dma.c ****       }
 1491              		.loc 1 571 16 is_stmt 0 view .LVU411
 1492 02da CDE6     		b	.L78
 1493              	.L90:
 537:Drivers/STM32F1xx_HAL_Driver/Src/stm32f1xx_hal_dma.c ****   {
 1494              		.loc 1 537 9 discriminator 2 view .LVU412
 1495 02dc 0649     		ldr	r1, .L205+12
 1496 02de 0968     		ldr	r1, [r1]
 537:Drivers/STM32F1xx_HAL_Driver/Src/stm32f1xx_hal_dma.c ****   {
 1497              		.loc 1 537 40 discriminator 2 view .LVU413
 1498 02e0 3142     		tst	r1, r6
 1499 02e2 0CBF     		ite	eq
 1500 02e4 0120     		moveq	r0, #1
 1501 02e6 0020     		movne	r0, #0
 1502 02e8 48E7     		b	.L91
 1503              	.L206:
 1504 02ea 00BF     		.align	2
 1505              	.L205:
 1506 02ec 08000240 		.word	1073872904
 1507 02f0 80000240 		.word	1073873024
 1508 02f4 00040240 		.word	1073873920
 1509 02f8 00000240 		.word	1073872896
 1510              	.L198:
 576:Drivers/STM32F1xx_HAL_Driver/Src/stm32f1xx_hal_dma.c ****   {
 1511              		.loc 1 576 3 is_stmt 1 view .LVU414
 576:Drivers/STM32F1xx_HAL_Driver/Src/stm32f1xx_hal_dma.c ****   {
 1512              		.loc 1 576 5 is_stmt 0 view .LVU415
 1513 02fc 002F     		cmp	r7, #0
 1514 02fe 40F09080 		bne	.L93
 579:Drivers/STM32F1xx_HAL_Driver/Src/stm32f1xx_hal_dma.c **** 
 1515              		.loc 1 579 5 is_stmt 1 view .LVU416
 1516 0302 8D49     		ldr	r1, .L207
 1517 0304 8A42     		cmp	r2, r1
 1518 0306 48D9     		bls	.L94
 579:Drivers/STM32F1xx_HAL_Driver/Src/stm32f1xx_hal_dma.c **** 
 1519              		.loc 1 579 5 is_stmt 0 discriminator 1 view .LVU417
 1520 0308 8C4A     		ldr	r2, .L207+4
 1521 030a 9342     		cmp	r3, r2
 1522 030c 23D0     		beq	.L146
 579:Drivers/STM32F1xx_HAL_Driver/Src/stm32f1xx_hal_dma.c **** 
 1523              		.loc 1 579 5 discriminator 3 view .LVU418
 1524 030e 1432     		adds	r2, r2, #20
 1525 0310 9342     		cmp	r3, r2
ARM GAS  C:\Users\HARTO_~1\AppData\Local\Temp\ccO3OpW0.s 			page 50


 1526 0312 2AD0     		beq	.L147
 579:Drivers/STM32F1xx_HAL_Driver/Src/stm32f1xx_hal_dma.c **** 
 1527              		.loc 1 579 5 discriminator 5 view .LVU419
 1528 0314 1432     		adds	r2, r2, #20
 1529 0316 9342     		cmp	r3, r2
 1530 0318 29D0     		beq	.L148
 579:Drivers/STM32F1xx_HAL_Driver/Src/stm32f1xx_hal_dma.c **** 
 1531              		.loc 1 579 5 discriminator 7 view .LVU420
 1532 031a 1432     		adds	r2, r2, #20
 1533 031c 9342     		cmp	r3, r2
 1534 031e 29D0     		beq	.L149
 579:Drivers/STM32F1xx_HAL_Driver/Src/stm32f1xx_hal_dma.c **** 
 1535              		.loc 1 579 5 discriminator 9 view .LVU421
 1536 0320 1432     		adds	r2, r2, #20
 1537 0322 9342     		cmp	r3, r2
 1538 0324 29D0     		beq	.L150
 579:Drivers/STM32F1xx_HAL_Driver/Src/stm32f1xx_hal_dma.c **** 
 1539              		.loc 1 579 5 discriminator 11 view .LVU422
 1540 0326 1432     		adds	r2, r2, #20
 1541 0328 9342     		cmp	r3, r2
 1542 032a 29D0     		beq	.L151
 579:Drivers/STM32F1xx_HAL_Driver/Src/stm32f1xx_hal_dma.c **** 
 1543              		.loc 1 579 5 discriminator 13 view .LVU423
 1544 032c 8B42     		cmp	r3, r1
 1545 032e 2AD0     		beq	.L152
 579:Drivers/STM32F1xx_HAL_Driver/Src/stm32f1xx_hal_dma.c **** 
 1546              		.loc 1 579 5 discriminator 15 view .LVU424
 1547 0330 01F56272 		add	r2, r1, #904
 1548 0334 9342     		cmp	r3, r2
 1549 0336 29D0     		beq	.L153
 579:Drivers/STM32F1xx_HAL_Driver/Src/stm32f1xx_hal_dma.c **** 
 1550              		.loc 1 579 5 discriminator 17 view .LVU425
 1551 0338 1432     		adds	r2, r2, #20
 1552 033a 9342     		cmp	r3, r2
 1553 033c 28D0     		beq	.L154
 579:Drivers/STM32F1xx_HAL_Driver/Src/stm32f1xx_hal_dma.c **** 
 1554              		.loc 1 579 5 discriminator 19 view .LVU426
 1555 033e 1432     		adds	r2, r2, #20
 1556 0340 9342     		cmp	r3, r2
 1557 0342 27D0     		beq	.L155
 579:Drivers/STM32F1xx_HAL_Driver/Src/stm32f1xx_hal_dma.c **** 
 1558              		.loc 1 579 5 discriminator 21 view .LVU427
 1559 0344 1432     		adds	r2, r2, #20
 1560 0346 9342     		cmp	r3, r2
 1561 0348 02D0     		beq	.L201
 579:Drivers/STM32F1xx_HAL_Driver/Src/stm32f1xx_hal_dma.c **** 
 1562              		.loc 1 579 5 view .LVU428
 1563 034a 4FF40033 		mov	r3, #131072
 1564 034e 03E0     		b	.L95
 1565              	.L201:
 1566 0350 4FF40053 		mov	r3, #8192
 1567 0354 00E0     		b	.L95
 1568              	.L146:
 1569 0356 0223     		movs	r3, #2
 1570              	.L95:
 579:Drivers/STM32F1xx_HAL_Driver/Src/stm32f1xx_hal_dma.c **** 
 1571              		.loc 1 579 5 discriminator 46 view .LVU429
ARM GAS  C:\Users\HARTO_~1\AppData\Local\Temp\ccO3OpW0.s 			page 51


 1572 0358 794A     		ldr	r2, .L207+8
 1573 035a 5360     		str	r3, [r2, #4]
 1574              	.L96:
 583:Drivers/STM32F1xx_HAL_Driver/Src/stm32f1xx_hal_dma.c ****   }
 1575              		.loc 1 583 5 is_stmt 1 view .LVU430
 583:Drivers/STM32F1xx_HAL_Driver/Src/stm32f1xx_hal_dma.c ****   }
 1576              		.loc 1 583 17 is_stmt 0 view .LVU431
 1577 035c 0123     		movs	r3, #1
 1578 035e 84F82130 		strb	r3, [r4, #33]
 1579              	.L98:
 592:Drivers/STM32F1xx_HAL_Driver/Src/stm32f1xx_hal_dma.c **** 
 1580              		.loc 1 592 3 is_stmt 1 view .LVU432
 592:Drivers/STM32F1xx_HAL_Driver/Src/stm32f1xx_hal_dma.c **** 
 1581              		.loc 1 592 3 view .LVU433
 1582 0362 0020     		movs	r0, #0
 1583 0364 84F82000 		strb	r0, [r4, #32]
 594:Drivers/STM32F1xx_HAL_Driver/Src/stm32f1xx_hal_dma.c **** }
 1584              		.loc 1 594 3 view .LVU434
 594:Drivers/STM32F1xx_HAL_Driver/Src/stm32f1xx_hal_dma.c **** }
 1585              		.loc 1 594 10 is_stmt 0 view .LVU435
 1586 0368 86E6     		b	.L78
 1587              	.L147:
 579:Drivers/STM32F1xx_HAL_Driver/Src/stm32f1xx_hal_dma.c **** 
 1588              		.loc 1 579 5 view .LVU436
 1589 036a 2023     		movs	r3, #32
 1590 036c F4E7     		b	.L95
 1591              	.L148:
 1592 036e 4FF40073 		mov	r3, #512
 1593 0372 F1E7     		b	.L95
 1594              	.L149:
 1595 0374 4FF40053 		mov	r3, #8192
 1596 0378 EEE7     		b	.L95
 1597              	.L150:
 1598 037a 4FF40033 		mov	r3, #131072
 1599 037e EBE7     		b	.L95
 1600              	.L151:
 1601 0380 4FF40013 		mov	r3, #2097152
 1602 0384 E8E7     		b	.L95
 1603              	.L152:
 1604 0386 4FF00073 		mov	r3, #33554432
 1605 038a E5E7     		b	.L95
 1606              	.L153:
 1607 038c 0223     		movs	r3, #2
 1608 038e E3E7     		b	.L95
 1609              	.L154:
 1610 0390 2023     		movs	r3, #32
 1611 0392 E1E7     		b	.L95
 1612              	.L155:
 1613 0394 4FF40073 		mov	r3, #512
 1614 0398 DEE7     		b	.L95
 1615              	.L94:
 579:Drivers/STM32F1xx_HAL_Driver/Src/stm32f1xx_hal_dma.c **** 
 1616              		.loc 1 579 5 discriminator 2 view .LVU437
 1617 039a 684A     		ldr	r2, .L207+4
 1618 039c 9342     		cmp	r3, r2
 1619 039e 24D0     		beq	.L157
 579:Drivers/STM32F1xx_HAL_Driver/Src/stm32f1xx_hal_dma.c **** 
ARM GAS  C:\Users\HARTO_~1\AppData\Local\Temp\ccO3OpW0.s 			page 52


 1620              		.loc 1 579 5 discriminator 47 view .LVU438
 1621 03a0 1432     		adds	r2, r2, #20
 1622 03a2 9342     		cmp	r3, r2
 1623 03a4 25D0     		beq	.L158
 579:Drivers/STM32F1xx_HAL_Driver/Src/stm32f1xx_hal_dma.c **** 
 1624              		.loc 1 579 5 discriminator 49 view .LVU439
 1625 03a6 1432     		adds	r2, r2, #20
 1626 03a8 9342     		cmp	r3, r2
 1627 03aa 24D0     		beq	.L159
 579:Drivers/STM32F1xx_HAL_Driver/Src/stm32f1xx_hal_dma.c **** 
 1628              		.loc 1 579 5 discriminator 51 view .LVU440
 1629 03ac 1432     		adds	r2, r2, #20
 1630 03ae 9342     		cmp	r3, r2
 1631 03b0 24D0     		beq	.L160
 579:Drivers/STM32F1xx_HAL_Driver/Src/stm32f1xx_hal_dma.c **** 
 1632              		.loc 1 579 5 discriminator 53 view .LVU441
 1633 03b2 1432     		adds	r2, r2, #20
 1634 03b4 9342     		cmp	r3, r2
 1635 03b6 24D0     		beq	.L161
 579:Drivers/STM32F1xx_HAL_Driver/Src/stm32f1xx_hal_dma.c **** 
 1636              		.loc 1 579 5 discriminator 55 view .LVU442
 1637 03b8 1432     		adds	r2, r2, #20
 1638 03ba 9342     		cmp	r3, r2
 1639 03bc 24D0     		beq	.L162
 579:Drivers/STM32F1xx_HAL_Driver/Src/stm32f1xx_hal_dma.c **** 
 1640              		.loc 1 579 5 discriminator 57 view .LVU443
 1641 03be 1432     		adds	r2, r2, #20
 1642 03c0 9342     		cmp	r3, r2
 1643 03c2 24D0     		beq	.L163
 579:Drivers/STM32F1xx_HAL_Driver/Src/stm32f1xx_hal_dma.c **** 
 1644              		.loc 1 579 5 discriminator 59 view .LVU444
 1645 03c4 02F56272 		add	r2, r2, #904
 1646 03c8 9342     		cmp	r3, r2
 1647 03ca 23D0     		beq	.L164
 579:Drivers/STM32F1xx_HAL_Driver/Src/stm32f1xx_hal_dma.c **** 
 1648              		.loc 1 579 5 discriminator 61 view .LVU445
 1649 03cc 1432     		adds	r2, r2, #20
 1650 03ce 9342     		cmp	r3, r2
 1651 03d0 22D0     		beq	.L165
 579:Drivers/STM32F1xx_HAL_Driver/Src/stm32f1xx_hal_dma.c **** 
 1652              		.loc 1 579 5 discriminator 63 view .LVU446
 1653 03d2 1432     		adds	r2, r2, #20
 1654 03d4 9342     		cmp	r3, r2
 1655 03d6 21D0     		beq	.L166
 579:Drivers/STM32F1xx_HAL_Driver/Src/stm32f1xx_hal_dma.c **** 
 1656              		.loc 1 579 5 discriminator 65 view .LVU447
 1657 03d8 1432     		adds	r2, r2, #20
 1658 03da 9342     		cmp	r3, r2
 1659 03dc 02D0     		beq	.L202
 579:Drivers/STM32F1xx_HAL_Driver/Src/stm32f1xx_hal_dma.c **** 
 1660              		.loc 1 579 5 view .LVU448
 1661 03de 4FF40033 		mov	r3, #131072
 1662 03e2 03E0     		b	.L97
 1663              	.L202:
 1664 03e4 4FF40053 		mov	r3, #8192
 1665 03e8 00E0     		b	.L97
 1666              	.L157:
ARM GAS  C:\Users\HARTO_~1\AppData\Local\Temp\ccO3OpW0.s 			page 53


 1667 03ea 0223     		movs	r3, #2
 1668              	.L97:
 579:Drivers/STM32F1xx_HAL_Driver/Src/stm32f1xx_hal_dma.c **** 
 1669              		.loc 1 579 5 discriminator 90 view .LVU449
 1670 03ec 554A     		ldr	r2, .L207+12
 1671 03ee 5360     		str	r3, [r2, #4]
 1672 03f0 B4E7     		b	.L96
 1673              	.L158:
 579:Drivers/STM32F1xx_HAL_Driver/Src/stm32f1xx_hal_dma.c **** 
 1674              		.loc 1 579 5 view .LVU450
 1675 03f2 2023     		movs	r3, #32
 1676 03f4 FAE7     		b	.L97
 1677              	.L159:
 1678 03f6 4FF40073 		mov	r3, #512
 1679 03fa F7E7     		b	.L97
 1680              	.L160:
 1681 03fc 4FF40053 		mov	r3, #8192
 1682 0400 F4E7     		b	.L97
 1683              	.L161:
 1684 0402 4FF40033 		mov	r3, #131072
 1685 0406 F1E7     		b	.L97
 1686              	.L162:
 1687 0408 4FF40013 		mov	r3, #2097152
 1688 040c EEE7     		b	.L97
 1689              	.L163:
 1690 040e 4FF00073 		mov	r3, #33554432
 1691 0412 EBE7     		b	.L97
 1692              	.L164:
 1693 0414 0223     		movs	r3, #2
 1694 0416 E9E7     		b	.L97
 1695              	.L165:
 1696 0418 2023     		movs	r3, #32
 1697 041a E7E7     		b	.L97
 1698              	.L166:
 1699 041c 4FF40073 		mov	r3, #512
 1700 0420 E4E7     		b	.L97
 1701              	.L93:
 588:Drivers/STM32F1xx_HAL_Driver/Src/stm32f1xx_hal_dma.c ****   }
 1702              		.loc 1 588 5 is_stmt 1 view .LVU451
 1703 0422 4549     		ldr	r1, .L207
 1704 0424 8A42     		cmp	r2, r1
 1705 0426 42D9     		bls	.L99
 588:Drivers/STM32F1xx_HAL_Driver/Src/stm32f1xx_hal_dma.c ****   }
 1706              		.loc 1 588 5 is_stmt 0 discriminator 1 view .LVU452
 1707 0428 444A     		ldr	r2, .L207+4
 1708 042a 9342     		cmp	r3, r2
 1709 042c 23D0     		beq	.L168
 588:Drivers/STM32F1xx_HAL_Driver/Src/stm32f1xx_hal_dma.c ****   }
 1710              		.loc 1 588 5 discriminator 3 view .LVU453
 1711 042e 1432     		adds	r2, r2, #20
 1712 0430 9342     		cmp	r3, r2
 1713 0432 24D0     		beq	.L169
 588:Drivers/STM32F1xx_HAL_Driver/Src/stm32f1xx_hal_dma.c ****   }
 1714              		.loc 1 588 5 discriminator 5 view .LVU454
 1715 0434 1432     		adds	r2, r2, #20
 1716 0436 9342     		cmp	r3, r2
 1717 0438 23D0     		beq	.L170
ARM GAS  C:\Users\HARTO_~1\AppData\Local\Temp\ccO3OpW0.s 			page 54


 588:Drivers/STM32F1xx_HAL_Driver/Src/stm32f1xx_hal_dma.c ****   }
 1718              		.loc 1 588 5 discriminator 7 view .LVU455
 1719 043a 1432     		adds	r2, r2, #20
 1720 043c 9342     		cmp	r3, r2
 1721 043e 23D0     		beq	.L171
 588:Drivers/STM32F1xx_HAL_Driver/Src/stm32f1xx_hal_dma.c ****   }
 1722              		.loc 1 588 5 discriminator 9 view .LVU456
 1723 0440 1432     		adds	r2, r2, #20
 1724 0442 9342     		cmp	r3, r2
 1725 0444 23D0     		beq	.L172
 588:Drivers/STM32F1xx_HAL_Driver/Src/stm32f1xx_hal_dma.c ****   }
 1726              		.loc 1 588 5 discriminator 11 view .LVU457
 1727 0446 1432     		adds	r2, r2, #20
 1728 0448 9342     		cmp	r3, r2
 1729 044a 23D0     		beq	.L173
 588:Drivers/STM32F1xx_HAL_Driver/Src/stm32f1xx_hal_dma.c ****   }
 1730              		.loc 1 588 5 discriminator 13 view .LVU458
 1731 044c 8B42     		cmp	r3, r1
 1732 044e 24D0     		beq	.L174
 588:Drivers/STM32F1xx_HAL_Driver/Src/stm32f1xx_hal_dma.c ****   }
 1733              		.loc 1 588 5 discriminator 15 view .LVU459
 1734 0450 01F56272 		add	r2, r1, #904
 1735 0454 9342     		cmp	r3, r2
 1736 0456 23D0     		beq	.L175
 588:Drivers/STM32F1xx_HAL_Driver/Src/stm32f1xx_hal_dma.c ****   }
 1737              		.loc 1 588 5 discriminator 17 view .LVU460
 1738 0458 1432     		adds	r2, r2, #20
 1739 045a 9342     		cmp	r3, r2
 1740 045c 22D0     		beq	.L176
 588:Drivers/STM32F1xx_HAL_Driver/Src/stm32f1xx_hal_dma.c ****   }
 1741              		.loc 1 588 5 discriminator 19 view .LVU461
 1742 045e 1432     		adds	r2, r2, #20
 1743 0460 9342     		cmp	r3, r2
 1744 0462 21D0     		beq	.L177
 588:Drivers/STM32F1xx_HAL_Driver/Src/stm32f1xx_hal_dma.c ****   }
 1745              		.loc 1 588 5 discriminator 21 view .LVU462
 1746 0464 1432     		adds	r2, r2, #20
 1747 0466 9342     		cmp	r3, r2
 1748 0468 02D0     		beq	.L203
 588:Drivers/STM32F1xx_HAL_Driver/Src/stm32f1xx_hal_dma.c ****   }
 1749              		.loc 1 588 5 view .LVU463
 1750 046a 4FF48023 		mov	r3, #262144
 1751 046e 03E0     		b	.L100
 1752              	.L203:
 1753 0470 4FF48043 		mov	r3, #16384
 1754 0474 00E0     		b	.L100
 1755              	.L168:
 1756 0476 0423     		movs	r3, #4
 1757              	.L100:
 588:Drivers/STM32F1xx_HAL_Driver/Src/stm32f1xx_hal_dma.c ****   }
 1758              		.loc 1 588 5 discriminator 46 view .LVU464
 1759 0478 314A     		ldr	r2, .L207+8
 1760 047a 5360     		str	r3, [r2, #4]
 1761 047c 71E7     		b	.L98
 1762              	.L169:
 588:Drivers/STM32F1xx_HAL_Driver/Src/stm32f1xx_hal_dma.c ****   }
 1763              		.loc 1 588 5 view .LVU465
ARM GAS  C:\Users\HARTO_~1\AppData\Local\Temp\ccO3OpW0.s 			page 55


 1764 047e 4023     		movs	r3, #64
 1765 0480 FAE7     		b	.L100
 1766              	.L170:
 1767 0482 4FF48063 		mov	r3, #1024
 1768 0486 F7E7     		b	.L100
 1769              	.L171:
 1770 0488 4FF48043 		mov	r3, #16384
 1771 048c F4E7     		b	.L100
 1772              	.L172:
 1773 048e 4FF48023 		mov	r3, #262144
 1774 0492 F1E7     		b	.L100
 1775              	.L173:
 1776 0494 4FF48003 		mov	r3, #4194304
 1777 0498 EEE7     		b	.L100
 1778              	.L174:
 1779 049a 4FF08063 		mov	r3, #67108864
 1780 049e EBE7     		b	.L100
 1781              	.L175:
 1782 04a0 0423     		movs	r3, #4
 1783 04a2 E9E7     		b	.L100
 1784              	.L176:
 1785 04a4 4023     		movs	r3, #64
 1786 04a6 E7E7     		b	.L100
 1787              	.L177:
 1788 04a8 4FF48063 		mov	r3, #1024
 1789 04ac E4E7     		b	.L100
 1790              	.L99:
 588:Drivers/STM32F1xx_HAL_Driver/Src/stm32f1xx_hal_dma.c ****   }
 1791              		.loc 1 588 5 discriminator 2 view .LVU466
 1792 04ae 234A     		ldr	r2, .L207+4
 1793 04b0 9342     		cmp	r3, r2
 1794 04b2 24D0     		beq	.L179
 588:Drivers/STM32F1xx_HAL_Driver/Src/stm32f1xx_hal_dma.c ****   }
 1795              		.loc 1 588 5 discriminator 47 view .LVU467
 1796 04b4 1432     		adds	r2, r2, #20
 1797 04b6 9342     		cmp	r3, r2
 1798 04b8 25D0     		beq	.L180
 588:Drivers/STM32F1xx_HAL_Driver/Src/stm32f1xx_hal_dma.c ****   }
 1799              		.loc 1 588 5 discriminator 49 view .LVU468
 1800 04ba 1432     		adds	r2, r2, #20
 1801 04bc 9342     		cmp	r3, r2
 1802 04be 24D0     		beq	.L181
 588:Drivers/STM32F1xx_HAL_Driver/Src/stm32f1xx_hal_dma.c ****   }
 1803              		.loc 1 588 5 discriminator 51 view .LVU469
 1804 04c0 1432     		adds	r2, r2, #20
 1805 04c2 9342     		cmp	r3, r2
 1806 04c4 24D0     		beq	.L182
 588:Drivers/STM32F1xx_HAL_Driver/Src/stm32f1xx_hal_dma.c ****   }
 1807              		.loc 1 588 5 discriminator 53 view .LVU470
 1808 04c6 1432     		adds	r2, r2, #20
 1809 04c8 9342     		cmp	r3, r2
 1810 04ca 24D0     		beq	.L183
 588:Drivers/STM32F1xx_HAL_Driver/Src/stm32f1xx_hal_dma.c ****   }
 1811              		.loc 1 588 5 discriminator 55 view .LVU471
 1812 04cc 1432     		adds	r2, r2, #20
 1813 04ce 9342     		cmp	r3, r2
 1814 04d0 24D0     		beq	.L184
ARM GAS  C:\Users\HARTO_~1\AppData\Local\Temp\ccO3OpW0.s 			page 56


 588:Drivers/STM32F1xx_HAL_Driver/Src/stm32f1xx_hal_dma.c ****   }
 1815              		.loc 1 588 5 discriminator 57 view .LVU472
 1816 04d2 1432     		adds	r2, r2, #20
 1817 04d4 9342     		cmp	r3, r2
 1818 04d6 24D0     		beq	.L185
 588:Drivers/STM32F1xx_HAL_Driver/Src/stm32f1xx_hal_dma.c ****   }
 1819              		.loc 1 588 5 discriminator 59 view .LVU473
 1820 04d8 02F56272 		add	r2, r2, #904
 1821 04dc 9342     		cmp	r3, r2
 1822 04de 23D0     		beq	.L186
 588:Drivers/STM32F1xx_HAL_Driver/Src/stm32f1xx_hal_dma.c ****   }
 1823              		.loc 1 588 5 discriminator 61 view .LVU474
 1824 04e0 1432     		adds	r2, r2, #20
 1825 04e2 9342     		cmp	r3, r2
 1826 04e4 22D0     		beq	.L187
 588:Drivers/STM32F1xx_HAL_Driver/Src/stm32f1xx_hal_dma.c ****   }
 1827              		.loc 1 588 5 discriminator 63 view .LVU475
 1828 04e6 1432     		adds	r2, r2, #20
 1829 04e8 9342     		cmp	r3, r2
 1830 04ea 21D0     		beq	.L188
 588:Drivers/STM32F1xx_HAL_Driver/Src/stm32f1xx_hal_dma.c ****   }
 1831              		.loc 1 588 5 discriminator 65 view .LVU476
 1832 04ec 1432     		adds	r2, r2, #20
 1833 04ee 9342     		cmp	r3, r2
 1834 04f0 02D0     		beq	.L204
 588:Drivers/STM32F1xx_HAL_Driver/Src/stm32f1xx_hal_dma.c ****   }
 1835              		.loc 1 588 5 view .LVU477
 1836 04f2 4FF48023 		mov	r3, #262144
 1837 04f6 03E0     		b	.L101
 1838              	.L204:
 1839 04f8 4FF48043 		mov	r3, #16384
 1840 04fc 00E0     		b	.L101
 1841              	.L179:
 1842 04fe 0423     		movs	r3, #4
 1843              	.L101:
 588:Drivers/STM32F1xx_HAL_Driver/Src/stm32f1xx_hal_dma.c ****   }
 1844              		.loc 1 588 5 discriminator 90 view .LVU478
 1845 0500 104A     		ldr	r2, .L207+12
 1846 0502 5360     		str	r3, [r2, #4]
 1847 0504 2DE7     		b	.L98
 1848              	.L180:
 588:Drivers/STM32F1xx_HAL_Driver/Src/stm32f1xx_hal_dma.c ****   }
 1849              		.loc 1 588 5 view .LVU479
 1850 0506 4023     		movs	r3, #64
 1851 0508 FAE7     		b	.L101
 1852              	.L181:
 1853 050a 4FF48063 		mov	r3, #1024
 1854 050e F7E7     		b	.L101
 1855              	.L182:
 1856 0510 4FF48043 		mov	r3, #16384
 1857 0514 F4E7     		b	.L101
 1858              	.L183:
 1859 0516 4FF48023 		mov	r3, #262144
 1860 051a F1E7     		b	.L101
 1861              	.L184:
 1862 051c 4FF48003 		mov	r3, #4194304
 1863 0520 EEE7     		b	.L101
ARM GAS  C:\Users\HARTO_~1\AppData\Local\Temp\ccO3OpW0.s 			page 57


 1864              	.L185:
 1865 0522 4FF08063 		mov	r3, #67108864
 1866 0526 EBE7     		b	.L101
 1867              	.L186:
 1868 0528 0423     		movs	r3, #4
 1869 052a E9E7     		b	.L101
 1870              	.L187:
 1871 052c 4023     		movs	r3, #64
 1872 052e E7E7     		b	.L101
 1873              	.L188:
 1874 0530 4FF48063 		mov	r3, #1024
 1875 0534 E4E7     		b	.L101
 1876              	.L208:
 1877 0536 00BF     		.align	2
 1878              	.L207:
 1879 0538 80000240 		.word	1073873024
 1880 053c 08000240 		.word	1073872904
 1881 0540 00040240 		.word	1073873920
 1882 0544 00000240 		.word	1073872896
 1883              		.cfi_endproc
 1884              	.LFE71:
 1886              		.section	.text.HAL_DMA_IRQHandler,"ax",%progbits
 1887              		.align	1
 1888              		.global	HAL_DMA_IRQHandler
 1889              		.syntax unified
 1890              		.thumb
 1891              		.thumb_func
 1892              		.fpu softvfp
 1894              	HAL_DMA_IRQHandler:
 1895              	.LVL62:
 1896              	.LFB72:
 604:Drivers/STM32F1xx_HAL_Driver/Src/stm32f1xx_hal_dma.c ****   uint32_t flag_it = hdma->DmaBaseAddress->ISR;
 1897              		.loc 1 604 1 is_stmt 1 view -0
 1898              		.cfi_startproc
 1899              		@ args = 0, pretend = 0, frame = 0
 1900              		@ frame_needed = 0, uses_anonymous_args = 0
 604:Drivers/STM32F1xx_HAL_Driver/Src/stm32f1xx_hal_dma.c ****   uint32_t flag_it = hdma->DmaBaseAddress->ISR;
 1901              		.loc 1 604 1 is_stmt 0 view .LVU481
 1902 0000 38B5     		push	{r3, r4, r5, lr}
 1903              	.LCFI11:
 1904              		.cfi_def_cfa_offset 16
 1905              		.cfi_offset 3, -16
 1906              		.cfi_offset 4, -12
 1907              		.cfi_offset 5, -8
 1908              		.cfi_offset 14, -4
 605:Drivers/STM32F1xx_HAL_Driver/Src/stm32f1xx_hal_dma.c ****   uint32_t source_it = hdma->Instance->CCR;
 1909              		.loc 1 605 3 is_stmt 1 view .LVU482
 605:Drivers/STM32F1xx_HAL_Driver/Src/stm32f1xx_hal_dma.c ****   uint32_t source_it = hdma->Instance->CCR;
 1910              		.loc 1 605 26 is_stmt 0 view .LVU483
 1911 0002 C36B     		ldr	r3, [r0, #60]
 605:Drivers/STM32F1xx_HAL_Driver/Src/stm32f1xx_hal_dma.c ****   uint32_t source_it = hdma->Instance->CCR;
 1912              		.loc 1 605 12 view .LVU484
 1913 0004 1A68     		ldr	r2, [r3]
 1914              	.LVL63:
 606:Drivers/STM32F1xx_HAL_Driver/Src/stm32f1xx_hal_dma.c ****   
 1915              		.loc 1 606 3 is_stmt 1 view .LVU485
 606:Drivers/STM32F1xx_HAL_Driver/Src/stm32f1xx_hal_dma.c ****   
ARM GAS  C:\Users\HARTO_~1\AppData\Local\Temp\ccO3OpW0.s 			page 58


 1916              		.loc 1 606 28 is_stmt 0 view .LVU486
 1917 0006 0468     		ldr	r4, [r0]
 606:Drivers/STM32F1xx_HAL_Driver/Src/stm32f1xx_hal_dma.c ****   
 1918              		.loc 1 606 12 view .LVU487
 1919 0008 2568     		ldr	r5, [r4]
 1920              	.LVL64:
 609:Drivers/STM32F1xx_HAL_Driver/Src/stm32f1xx_hal_dma.c ****   {
 1921              		.loc 1 609 3 is_stmt 1 view .LVU488
 609:Drivers/STM32F1xx_HAL_Driver/Src/stm32f1xx_hal_dma.c ****   {
 1922              		.loc 1 609 40 is_stmt 0 view .LVU489
 1923 000a 016C     		ldr	r1, [r0, #64]
 609:Drivers/STM32F1xx_HAL_Driver/Src/stm32f1xx_hal_dma.c ****   {
 1924              		.loc 1 609 33 view .LVU490
 1925 000c 0423     		movs	r3, #4
 1926 000e 8B40     		lsls	r3, r3, r1
 609:Drivers/STM32F1xx_HAL_Driver/Src/stm32f1xx_hal_dma.c ****   {
 1927              		.loc 1 609 6 view .LVU491
 1928 0010 1342     		tst	r3, r2
 1929 0012 00F09B80 		beq	.L210
 609:Drivers/STM32F1xx_HAL_Driver/Src/stm32f1xx_hal_dma.c ****   {
 1930              		.loc 1 609 67 discriminator 1 view .LVU492
 1931 0016 15F0040F 		tst	r5, #4
 1932 001a 00F09780 		beq	.L210
 612:Drivers/STM32F1xx_HAL_Driver/Src/stm32f1xx_hal_dma.c ****     {
 1933              		.loc 1 612 5 is_stmt 1 view .LVU493
 612:Drivers/STM32F1xx_HAL_Driver/Src/stm32f1xx_hal_dma.c ****     {
 1934              		.loc 1 612 23 is_stmt 0 view .LVU494
 1935 001e 2368     		ldr	r3, [r4]
 612:Drivers/STM32F1xx_HAL_Driver/Src/stm32f1xx_hal_dma.c ****     {
 1936              		.loc 1 612 7 view .LVU495
 1937 0020 13F0200F 		tst	r3, #32
 1938 0024 03D1     		bne	.L211
 615:Drivers/STM32F1xx_HAL_Driver/Src/stm32f1xx_hal_dma.c ****     }
 1939              		.loc 1 615 7 is_stmt 1 view .LVU496
 1940 0026 2368     		ldr	r3, [r4]
 1941 0028 23F00403 		bic	r3, r3, #4
 1942 002c 2360     		str	r3, [r4]
 1943              	.L211:
 618:Drivers/STM32F1xx_HAL_Driver/Src/stm32f1xx_hal_dma.c **** 
 1944              		.loc 1 618 5 view .LVU497
 1945 002e 0368     		ldr	r3, [r0]
 1946 0030 AA4A     		ldr	r2, .L272
 1947              	.LVL65:
 618:Drivers/STM32F1xx_HAL_Driver/Src/stm32f1xx_hal_dma.c **** 
 1948              		.loc 1 618 5 is_stmt 0 view .LVU498
 1949 0032 9342     		cmp	r3, r2
 1950 0034 46D9     		bls	.L212
 618:Drivers/STM32F1xx_HAL_Driver/Src/stm32f1xx_hal_dma.c **** 
 1951              		.loc 1 618 5 discriminator 1 view .LVU499
 1952 0036 783A     		subs	r2, r2, #120
 1953 0038 9342     		cmp	r3, r2
 1954 003a 24D0     		beq	.L223
 618:Drivers/STM32F1xx_HAL_Driver/Src/stm32f1xx_hal_dma.c **** 
 1955              		.loc 1 618 5 discriminator 3 view .LVU500
 1956 003c 1432     		adds	r2, r2, #20
 1957 003e 9342     		cmp	r3, r2
 1958 0040 28D0     		beq	.L224
ARM GAS  C:\Users\HARTO_~1\AppData\Local\Temp\ccO3OpW0.s 			page 59


 618:Drivers/STM32F1xx_HAL_Driver/Src/stm32f1xx_hal_dma.c **** 
 1959              		.loc 1 618 5 discriminator 5 view .LVU501
 1960 0042 1432     		adds	r2, r2, #20
 1961 0044 9342     		cmp	r3, r2
 1962 0046 27D0     		beq	.L225
 618:Drivers/STM32F1xx_HAL_Driver/Src/stm32f1xx_hal_dma.c **** 
 1963              		.loc 1 618 5 discriminator 7 view .LVU502
 1964 0048 1432     		adds	r2, r2, #20
 1965 004a 9342     		cmp	r3, r2
 1966 004c 27D0     		beq	.L226
 618:Drivers/STM32F1xx_HAL_Driver/Src/stm32f1xx_hal_dma.c **** 
 1967              		.loc 1 618 5 discriminator 9 view .LVU503
 1968 004e 1432     		adds	r2, r2, #20
 1969 0050 9342     		cmp	r3, r2
 1970 0052 27D0     		beq	.L227
 618:Drivers/STM32F1xx_HAL_Driver/Src/stm32f1xx_hal_dma.c **** 
 1971              		.loc 1 618 5 discriminator 11 view .LVU504
 1972 0054 1432     		adds	r2, r2, #20
 1973 0056 9342     		cmp	r3, r2
 1974 0058 27D0     		beq	.L228
 618:Drivers/STM32F1xx_HAL_Driver/Src/stm32f1xx_hal_dma.c **** 
 1975              		.loc 1 618 5 discriminator 13 view .LVU505
 1976 005a 1432     		adds	r2, r2, #20
 1977 005c 9342     		cmp	r3, r2
 1978 005e 27D0     		beq	.L229
 618:Drivers/STM32F1xx_HAL_Driver/Src/stm32f1xx_hal_dma.c **** 
 1979              		.loc 1 618 5 discriminator 15 view .LVU506
 1980 0060 02F56272 		add	r2, r2, #904
 1981 0064 9342     		cmp	r3, r2
 1982 0066 26D0     		beq	.L230
 618:Drivers/STM32F1xx_HAL_Driver/Src/stm32f1xx_hal_dma.c **** 
 1983              		.loc 1 618 5 discriminator 17 view .LVU507
 1984 0068 1432     		adds	r2, r2, #20
 1985 006a 9342     		cmp	r3, r2
 1986 006c 25D0     		beq	.L231
 618:Drivers/STM32F1xx_HAL_Driver/Src/stm32f1xx_hal_dma.c **** 
 1987              		.loc 1 618 5 discriminator 19 view .LVU508
 1988 006e 1432     		adds	r2, r2, #20
 1989 0070 9342     		cmp	r3, r2
 1990 0072 24D0     		beq	.L232
 618:Drivers/STM32F1xx_HAL_Driver/Src/stm32f1xx_hal_dma.c **** 
 1991              		.loc 1 618 5 discriminator 21 view .LVU509
 1992 0074 1432     		adds	r2, r2, #20
 1993 0076 9342     		cmp	r3, r2
 1994 0078 02D0     		beq	.L268
 618:Drivers/STM32F1xx_HAL_Driver/Src/stm32f1xx_hal_dma.c **** 
 1995              		.loc 1 618 5 view .LVU510
 1996 007a 4FF48022 		mov	r2, #262144
 1997 007e 03E0     		b	.L213
 1998              	.L268:
 1999 0080 4FF48042 		mov	r2, #16384
 2000 0084 00E0     		b	.L213
 2001              	.L223:
 2002 0086 0422     		movs	r2, #4
 2003              	.L213:
 618:Drivers/STM32F1xx_HAL_Driver/Src/stm32f1xx_hal_dma.c **** 
 2004              		.loc 1 618 5 discriminator 46 view .LVU511
ARM GAS  C:\Users\HARTO_~1\AppData\Local\Temp\ccO3OpW0.s 			page 60


 2005 0088 954B     		ldr	r3, .L272+4
 2006 008a 5A60     		str	r2, [r3, #4]
 2007              	.L214:
 623:Drivers/STM32F1xx_HAL_Driver/Src/stm32f1xx_hal_dma.c ****     {
 2008              		.loc 1 623 5 is_stmt 1 view .LVU512
 623:Drivers/STM32F1xx_HAL_Driver/Src/stm32f1xx_hal_dma.c ****     {
 2009              		.loc 1 623 12 is_stmt 0 view .LVU513
 2010 008c C36A     		ldr	r3, [r0, #44]
 623:Drivers/STM32F1xx_HAL_Driver/Src/stm32f1xx_hal_dma.c ****     {
 2011              		.loc 1 623 7 view .LVU514
 2012 008e 03B1     		cbz	r3, .L209
 626:Drivers/STM32F1xx_HAL_Driver/Src/stm32f1xx_hal_dma.c ****     }
 2013              		.loc 1 626 7 is_stmt 1 view .LVU515
 2014 0090 9847     		blx	r3
 2015              	.LVL66:
 2016              	.L209:
 681:Drivers/STM32F1xx_HAL_Driver/Src/stm32f1xx_hal_dma.c **** 
 2017              		.loc 1 681 1 is_stmt 0 view .LVU516
 2018 0092 38BD     		pop	{r3, r4, r5, pc}
 2019              	.LVL67:
 2020              	.L224:
 618:Drivers/STM32F1xx_HAL_Driver/Src/stm32f1xx_hal_dma.c **** 
 2021              		.loc 1 618 5 view .LVU517
 2022 0094 4022     		movs	r2, #64
 2023 0096 F7E7     		b	.L213
 2024              	.L225:
 2025 0098 4FF48062 		mov	r2, #1024
 2026 009c F4E7     		b	.L213
 2027              	.L226:
 2028 009e 4FF48042 		mov	r2, #16384
 2029 00a2 F1E7     		b	.L213
 2030              	.L227:
 2031 00a4 4FF48022 		mov	r2, #262144
 2032 00a8 EEE7     		b	.L213
 2033              	.L228:
 2034 00aa 4FF48002 		mov	r2, #4194304
 2035 00ae EBE7     		b	.L213
 2036              	.L229:
 2037 00b0 4FF08062 		mov	r2, #67108864
 2038 00b4 E8E7     		b	.L213
 2039              	.L230:
 2040 00b6 0422     		movs	r2, #4
 2041 00b8 E6E7     		b	.L213
 2042              	.L231:
 2043 00ba 4022     		movs	r2, #64
 2044 00bc E4E7     		b	.L213
 2045              	.L232:
 2046 00be 4FF48062 		mov	r2, #1024
 2047 00c2 E1E7     		b	.L213
 2048              	.L212:
 618:Drivers/STM32F1xx_HAL_Driver/Src/stm32f1xx_hal_dma.c **** 
 2049              		.loc 1 618 5 discriminator 2 view .LVU518
 2050 00c4 874A     		ldr	r2, .L272+8
 2051 00c6 9342     		cmp	r3, r2
 2052 00c8 24D0     		beq	.L234
 618:Drivers/STM32F1xx_HAL_Driver/Src/stm32f1xx_hal_dma.c **** 
 2053              		.loc 1 618 5 discriminator 47 view .LVU519
ARM GAS  C:\Users\HARTO_~1\AppData\Local\Temp\ccO3OpW0.s 			page 61


 2054 00ca 1432     		adds	r2, r2, #20
 2055 00cc 9342     		cmp	r3, r2
 2056 00ce 25D0     		beq	.L235
 618:Drivers/STM32F1xx_HAL_Driver/Src/stm32f1xx_hal_dma.c **** 
 2057              		.loc 1 618 5 discriminator 49 view .LVU520
 2058 00d0 1432     		adds	r2, r2, #20
 2059 00d2 9342     		cmp	r3, r2
 2060 00d4 24D0     		beq	.L236
 618:Drivers/STM32F1xx_HAL_Driver/Src/stm32f1xx_hal_dma.c **** 
 2061              		.loc 1 618 5 discriminator 51 view .LVU521
 2062 00d6 1432     		adds	r2, r2, #20
 2063 00d8 9342     		cmp	r3, r2
 2064 00da 24D0     		beq	.L237
 618:Drivers/STM32F1xx_HAL_Driver/Src/stm32f1xx_hal_dma.c **** 
 2065              		.loc 1 618 5 discriminator 53 view .LVU522
 2066 00dc 1432     		adds	r2, r2, #20
 2067 00de 9342     		cmp	r3, r2
 2068 00e0 24D0     		beq	.L238
 618:Drivers/STM32F1xx_HAL_Driver/Src/stm32f1xx_hal_dma.c **** 
 2069              		.loc 1 618 5 discriminator 55 view .LVU523
 2070 00e2 1432     		adds	r2, r2, #20
 2071 00e4 9342     		cmp	r3, r2
 2072 00e6 24D0     		beq	.L239
 618:Drivers/STM32F1xx_HAL_Driver/Src/stm32f1xx_hal_dma.c **** 
 2073              		.loc 1 618 5 discriminator 57 view .LVU524
 2074 00e8 1432     		adds	r2, r2, #20
 2075 00ea 9342     		cmp	r3, r2
 2076 00ec 24D0     		beq	.L240
 618:Drivers/STM32F1xx_HAL_Driver/Src/stm32f1xx_hal_dma.c **** 
 2077              		.loc 1 618 5 discriminator 59 view .LVU525
 2078 00ee 02F56272 		add	r2, r2, #904
 2079 00f2 9342     		cmp	r3, r2
 2080 00f4 23D0     		beq	.L241
 618:Drivers/STM32F1xx_HAL_Driver/Src/stm32f1xx_hal_dma.c **** 
 2081              		.loc 1 618 5 discriminator 61 view .LVU526
 2082 00f6 1432     		adds	r2, r2, #20
 2083 00f8 9342     		cmp	r3, r2
 2084 00fa 22D0     		beq	.L242
 618:Drivers/STM32F1xx_HAL_Driver/Src/stm32f1xx_hal_dma.c **** 
 2085              		.loc 1 618 5 discriminator 63 view .LVU527
 2086 00fc 1432     		adds	r2, r2, #20
 2087 00fe 9342     		cmp	r3, r2
 2088 0100 21D0     		beq	.L243
 618:Drivers/STM32F1xx_HAL_Driver/Src/stm32f1xx_hal_dma.c **** 
 2089              		.loc 1 618 5 discriminator 65 view .LVU528
 2090 0102 1432     		adds	r2, r2, #20
 2091 0104 9342     		cmp	r3, r2
 2092 0106 02D0     		beq	.L269
 618:Drivers/STM32F1xx_HAL_Driver/Src/stm32f1xx_hal_dma.c **** 
 2093              		.loc 1 618 5 view .LVU529
 2094 0108 4FF48022 		mov	r2, #262144
 2095 010c 03E0     		b	.L215
 2096              	.L269:
 2097 010e 4FF48042 		mov	r2, #16384
 2098 0112 00E0     		b	.L215
 2099              	.L234:
 2100 0114 0422     		movs	r2, #4
ARM GAS  C:\Users\HARTO_~1\AppData\Local\Temp\ccO3OpW0.s 			page 62


 2101              	.L215:
 618:Drivers/STM32F1xx_HAL_Driver/Src/stm32f1xx_hal_dma.c **** 
 2102              		.loc 1 618 5 discriminator 90 view .LVU530
 2103 0116 744B     		ldr	r3, .L272+12
 2104 0118 5A60     		str	r2, [r3, #4]
 2105 011a B7E7     		b	.L214
 2106              	.L235:
 618:Drivers/STM32F1xx_HAL_Driver/Src/stm32f1xx_hal_dma.c **** 
 2107              		.loc 1 618 5 view .LVU531
 2108 011c 4022     		movs	r2, #64
 2109 011e FAE7     		b	.L215
 2110              	.L236:
 2111 0120 4FF48062 		mov	r2, #1024
 2112 0124 F7E7     		b	.L215
 2113              	.L237:
 2114 0126 4FF48042 		mov	r2, #16384
 2115 012a F4E7     		b	.L215
 2116              	.L238:
 2117 012c 4FF48022 		mov	r2, #262144
 2118 0130 F1E7     		b	.L215
 2119              	.L239:
 2120 0132 4FF48002 		mov	r2, #4194304
 2121 0136 EEE7     		b	.L215
 2122              	.L240:
 2123 0138 4FF08062 		mov	r2, #67108864
 2124 013c EBE7     		b	.L215
 2125              	.L241:
 2126 013e 0422     		movs	r2, #4
 2127 0140 E9E7     		b	.L215
 2128              	.L242:
 2129 0142 4022     		movs	r2, #64
 2130 0144 E7E7     		b	.L215
 2131              	.L243:
 2132 0146 4FF48062 		mov	r2, #1024
 2133 014a E4E7     		b	.L215
 2134              	.LVL68:
 2135              	.L210:
 631:Drivers/STM32F1xx_HAL_Driver/Src/stm32f1xx_hal_dma.c ****   {
 2136              		.loc 1 631 8 is_stmt 1 view .LVU532
 631:Drivers/STM32F1xx_HAL_Driver/Src/stm32f1xx_hal_dma.c ****   {
 2137              		.loc 1 631 38 is_stmt 0 view .LVU533
 2138 014c 0223     		movs	r3, #2
 2139 014e 8B40     		lsls	r3, r3, r1
 631:Drivers/STM32F1xx_HAL_Driver/Src/stm32f1xx_hal_dma.c ****   {
 2140              		.loc 1 631 11 view .LVU534
 2141 0150 1342     		tst	r3, r2
 2142 0152 00F0A380 		beq	.L217
 631:Drivers/STM32F1xx_HAL_Driver/Src/stm32f1xx_hal_dma.c ****   {
 2143              		.loc 1 631 72 discriminator 1 view .LVU535
 2144 0156 15F0020F 		tst	r5, #2
 2145 015a 00F09F80 		beq	.L217
 633:Drivers/STM32F1xx_HAL_Driver/Src/stm32f1xx_hal_dma.c ****     {
 2146              		.loc 1 633 5 is_stmt 1 view .LVU536
 633:Drivers/STM32F1xx_HAL_Driver/Src/stm32f1xx_hal_dma.c ****     {
 2147              		.loc 1 633 23 is_stmt 0 view .LVU537
 2148 015e 2368     		ldr	r3, [r4]
 633:Drivers/STM32F1xx_HAL_Driver/Src/stm32f1xx_hal_dma.c ****     {
ARM GAS  C:\Users\HARTO_~1\AppData\Local\Temp\ccO3OpW0.s 			page 63


 2149              		.loc 1 633 7 view .LVU538
 2150 0160 13F0200F 		tst	r3, #32
 2151 0164 06D1     		bne	.L218
 636:Drivers/STM32F1xx_HAL_Driver/Src/stm32f1xx_hal_dma.c **** 
 2152              		.loc 1 636 7 is_stmt 1 view .LVU539
 2153 0166 2368     		ldr	r3, [r4]
 2154 0168 23F00A03 		bic	r3, r3, #10
 2155 016c 2360     		str	r3, [r4]
 639:Drivers/STM32F1xx_HAL_Driver/Src/stm32f1xx_hal_dma.c ****     }
 2156              		.loc 1 639 7 view .LVU540
 639:Drivers/STM32F1xx_HAL_Driver/Src/stm32f1xx_hal_dma.c ****     }
 2157              		.loc 1 639 19 is_stmt 0 view .LVU541
 2158 016e 0123     		movs	r3, #1
 2159 0170 80F82130 		strb	r3, [r0, #33]
 2160              	.L218:
 642:Drivers/STM32F1xx_HAL_Driver/Src/stm32f1xx_hal_dma.c **** 
 2161              		.loc 1 642 7 is_stmt 1 view .LVU542
 2162 0174 0368     		ldr	r3, [r0]
 2163 0176 594A     		ldr	r2, .L272
 2164              	.LVL69:
 642:Drivers/STM32F1xx_HAL_Driver/Src/stm32f1xx_hal_dma.c **** 
 2165              		.loc 1 642 7 is_stmt 0 view .LVU543
 2166 0178 9342     		cmp	r3, r2
 2167 017a 4BD9     		bls	.L219
 642:Drivers/STM32F1xx_HAL_Driver/Src/stm32f1xx_hal_dma.c **** 
 2168              		.loc 1 642 7 discriminator 1 view .LVU544
 2169 017c 783A     		subs	r2, r2, #120
 2170 017e 9342     		cmp	r3, r2
 2171 0180 24D0     		beq	.L245
 642:Drivers/STM32F1xx_HAL_Driver/Src/stm32f1xx_hal_dma.c **** 
 2172              		.loc 1 642 7 discriminator 3 view .LVU545
 2173 0182 1432     		adds	r2, r2, #20
 2174 0184 9342     		cmp	r3, r2
 2175 0186 2DD0     		beq	.L246
 642:Drivers/STM32F1xx_HAL_Driver/Src/stm32f1xx_hal_dma.c **** 
 2176              		.loc 1 642 7 discriminator 5 view .LVU546
 2177 0188 1432     		adds	r2, r2, #20
 2178 018a 9342     		cmp	r3, r2
 2179 018c 2CD0     		beq	.L247
 642:Drivers/STM32F1xx_HAL_Driver/Src/stm32f1xx_hal_dma.c **** 
 2180              		.loc 1 642 7 discriminator 7 view .LVU547
 2181 018e 1432     		adds	r2, r2, #20
 2182 0190 9342     		cmp	r3, r2
 2183 0192 2CD0     		beq	.L248
 642:Drivers/STM32F1xx_HAL_Driver/Src/stm32f1xx_hal_dma.c **** 
 2184              		.loc 1 642 7 discriminator 9 view .LVU548
 2185 0194 1432     		adds	r2, r2, #20
 2186 0196 9342     		cmp	r3, r2
 2187 0198 2CD0     		beq	.L249
 642:Drivers/STM32F1xx_HAL_Driver/Src/stm32f1xx_hal_dma.c **** 
 2188              		.loc 1 642 7 discriminator 11 view .LVU549
 2189 019a 1432     		adds	r2, r2, #20
 2190 019c 9342     		cmp	r3, r2
 2191 019e 2CD0     		beq	.L250
 642:Drivers/STM32F1xx_HAL_Driver/Src/stm32f1xx_hal_dma.c **** 
 2192              		.loc 1 642 7 discriminator 13 view .LVU550
 2193 01a0 1432     		adds	r2, r2, #20
ARM GAS  C:\Users\HARTO_~1\AppData\Local\Temp\ccO3OpW0.s 			page 64


 2194 01a2 9342     		cmp	r3, r2
 2195 01a4 2CD0     		beq	.L251
 642:Drivers/STM32F1xx_HAL_Driver/Src/stm32f1xx_hal_dma.c **** 
 2196              		.loc 1 642 7 discriminator 15 view .LVU551
 2197 01a6 02F56272 		add	r2, r2, #904
 2198 01aa 9342     		cmp	r3, r2
 2199 01ac 2BD0     		beq	.L252
 642:Drivers/STM32F1xx_HAL_Driver/Src/stm32f1xx_hal_dma.c **** 
 2200              		.loc 1 642 7 discriminator 17 view .LVU552
 2201 01ae 1432     		adds	r2, r2, #20
 2202 01b0 9342     		cmp	r3, r2
 2203 01b2 2AD0     		beq	.L253
 642:Drivers/STM32F1xx_HAL_Driver/Src/stm32f1xx_hal_dma.c **** 
 2204              		.loc 1 642 7 discriminator 19 view .LVU553
 2205 01b4 1432     		adds	r2, r2, #20
 2206 01b6 9342     		cmp	r3, r2
 2207 01b8 29D0     		beq	.L254
 642:Drivers/STM32F1xx_HAL_Driver/Src/stm32f1xx_hal_dma.c **** 
 2208              		.loc 1 642 7 discriminator 21 view .LVU554
 2209 01ba 1432     		adds	r2, r2, #20
 2210 01bc 9342     		cmp	r3, r2
 2211 01be 02D0     		beq	.L270
 642:Drivers/STM32F1xx_HAL_Driver/Src/stm32f1xx_hal_dma.c **** 
 2212              		.loc 1 642 7 view .LVU555
 2213 01c0 4FF40032 		mov	r2, #131072
 2214 01c4 03E0     		b	.L220
 2215              	.L270:
 2216 01c6 4FF40052 		mov	r2, #8192
 2217 01ca 00E0     		b	.L220
 2218              	.L245:
 2219 01cc 0222     		movs	r2, #2
 2220              	.L220:
 642:Drivers/STM32F1xx_HAL_Driver/Src/stm32f1xx_hal_dma.c **** 
 2221              		.loc 1 642 7 discriminator 46 view .LVU556
 2222 01ce 444B     		ldr	r3, .L272+4
 2223 01d0 5A60     		str	r2, [r3, #4]
 2224              	.L221:
 645:Drivers/STM32F1xx_HAL_Driver/Src/stm32f1xx_hal_dma.c **** 
 2225              		.loc 1 645 5 is_stmt 1 view .LVU557
 645:Drivers/STM32F1xx_HAL_Driver/Src/stm32f1xx_hal_dma.c **** 
 2226              		.loc 1 645 5 view .LVU558
 2227 01d2 0023     		movs	r3, #0
 2228 01d4 80F82030 		strb	r3, [r0, #32]
 647:Drivers/STM32F1xx_HAL_Driver/Src/stm32f1xx_hal_dma.c ****     {
 2229              		.loc 1 647 5 view .LVU559
 647:Drivers/STM32F1xx_HAL_Driver/Src/stm32f1xx_hal_dma.c ****     {
 2230              		.loc 1 647 12 is_stmt 0 view .LVU560
 2231 01d8 836A     		ldr	r3, [r0, #40]
 647:Drivers/STM32F1xx_HAL_Driver/Src/stm32f1xx_hal_dma.c ****     {
 2232              		.loc 1 647 7 view .LVU561
 2233 01da 002B     		cmp	r3, #0
 2234 01dc 3FF459AF 		beq	.L209
 650:Drivers/STM32F1xx_HAL_Driver/Src/stm32f1xx_hal_dma.c ****     }
 2235              		.loc 1 650 7 is_stmt 1 view .LVU562
 2236 01e0 9847     		blx	r3
 2237              	.LVL70:
 650:Drivers/STM32F1xx_HAL_Driver/Src/stm32f1xx_hal_dma.c ****     }
ARM GAS  C:\Users\HARTO_~1\AppData\Local\Temp\ccO3OpW0.s 			page 65


 2238              		.loc 1 650 7 is_stmt 0 view .LVU563
 2239 01e2 56E7     		b	.L209
 2240              	.LVL71:
 2241              	.L246:
 642:Drivers/STM32F1xx_HAL_Driver/Src/stm32f1xx_hal_dma.c **** 
 2242              		.loc 1 642 7 view .LVU564
 2243 01e4 2022     		movs	r2, #32
 2244 01e6 F2E7     		b	.L220
 2245              	.L247:
 2246 01e8 4FF40072 		mov	r2, #512
 2247 01ec EFE7     		b	.L220
 2248              	.L248:
 2249 01ee 4FF40052 		mov	r2, #8192
 2250 01f2 ECE7     		b	.L220
 2251              	.L249:
 2252 01f4 4FF40032 		mov	r2, #131072
 2253 01f8 E9E7     		b	.L220
 2254              	.L250:
 2255 01fa 4FF40012 		mov	r2, #2097152
 2256 01fe E6E7     		b	.L220
 2257              	.L251:
 2258 0200 4FF00072 		mov	r2, #33554432
 2259 0204 E3E7     		b	.L220
 2260              	.L252:
 2261 0206 0222     		movs	r2, #2
 2262 0208 E1E7     		b	.L220
 2263              	.L253:
 2264 020a 2022     		movs	r2, #32
 2265 020c DFE7     		b	.L220
 2266              	.L254:
 2267 020e 4FF40072 		mov	r2, #512
 2268 0212 DCE7     		b	.L220
 2269              	.L219:
 642:Drivers/STM32F1xx_HAL_Driver/Src/stm32f1xx_hal_dma.c **** 
 2270              		.loc 1 642 7 discriminator 2 view .LVU565
 2271 0214 334A     		ldr	r2, .L272+8
 2272 0216 9342     		cmp	r3, r2
 2273 0218 24D0     		beq	.L256
 642:Drivers/STM32F1xx_HAL_Driver/Src/stm32f1xx_hal_dma.c **** 
 2274              		.loc 1 642 7 discriminator 47 view .LVU566
 2275 021a 1432     		adds	r2, r2, #20
 2276 021c 9342     		cmp	r3, r2
 2277 021e 25D0     		beq	.L257
 642:Drivers/STM32F1xx_HAL_Driver/Src/stm32f1xx_hal_dma.c **** 
 2278              		.loc 1 642 7 discriminator 49 view .LVU567
 2279 0220 1432     		adds	r2, r2, #20
 2280 0222 9342     		cmp	r3, r2
 2281 0224 24D0     		beq	.L258
 642:Drivers/STM32F1xx_HAL_Driver/Src/stm32f1xx_hal_dma.c **** 
 2282              		.loc 1 642 7 discriminator 51 view .LVU568
 2283 0226 1432     		adds	r2, r2, #20
 2284 0228 9342     		cmp	r3, r2
 2285 022a 24D0     		beq	.L259
 642:Drivers/STM32F1xx_HAL_Driver/Src/stm32f1xx_hal_dma.c **** 
 2286              		.loc 1 642 7 discriminator 53 view .LVU569
 2287 022c 1432     		adds	r2, r2, #20
 2288 022e 9342     		cmp	r3, r2
ARM GAS  C:\Users\HARTO_~1\AppData\Local\Temp\ccO3OpW0.s 			page 66


 2289 0230 24D0     		beq	.L260
 642:Drivers/STM32F1xx_HAL_Driver/Src/stm32f1xx_hal_dma.c **** 
 2290              		.loc 1 642 7 discriminator 55 view .LVU570
 2291 0232 1432     		adds	r2, r2, #20
 2292 0234 9342     		cmp	r3, r2
 2293 0236 24D0     		beq	.L261
 642:Drivers/STM32F1xx_HAL_Driver/Src/stm32f1xx_hal_dma.c **** 
 2294              		.loc 1 642 7 discriminator 57 view .LVU571
 2295 0238 1432     		adds	r2, r2, #20
 2296 023a 9342     		cmp	r3, r2
 2297 023c 24D0     		beq	.L262
 642:Drivers/STM32F1xx_HAL_Driver/Src/stm32f1xx_hal_dma.c **** 
 2298              		.loc 1 642 7 discriminator 59 view .LVU572
 2299 023e 02F56272 		add	r2, r2, #904
 2300 0242 9342     		cmp	r3, r2
 2301 0244 23D0     		beq	.L263
 642:Drivers/STM32F1xx_HAL_Driver/Src/stm32f1xx_hal_dma.c **** 
 2302              		.loc 1 642 7 discriminator 61 view .LVU573
 2303 0246 1432     		adds	r2, r2, #20
 2304 0248 9342     		cmp	r3, r2
 2305 024a 22D0     		beq	.L264
 642:Drivers/STM32F1xx_HAL_Driver/Src/stm32f1xx_hal_dma.c **** 
 2306              		.loc 1 642 7 discriminator 63 view .LVU574
 2307 024c 1432     		adds	r2, r2, #20
 2308 024e 9342     		cmp	r3, r2
 2309 0250 21D0     		beq	.L265
 642:Drivers/STM32F1xx_HAL_Driver/Src/stm32f1xx_hal_dma.c **** 
 2310              		.loc 1 642 7 discriminator 65 view .LVU575
 2311 0252 1432     		adds	r2, r2, #20
 2312 0254 9342     		cmp	r3, r2
 2313 0256 02D0     		beq	.L271
 642:Drivers/STM32F1xx_HAL_Driver/Src/stm32f1xx_hal_dma.c **** 
 2314              		.loc 1 642 7 view .LVU576
 2315 0258 4FF40032 		mov	r2, #131072
 2316 025c 03E0     		b	.L222
 2317              	.L271:
 2318 025e 4FF40052 		mov	r2, #8192
 2319 0262 00E0     		b	.L222
 2320              	.L256:
 2321 0264 0222     		movs	r2, #2
 2322              	.L222:
 642:Drivers/STM32F1xx_HAL_Driver/Src/stm32f1xx_hal_dma.c **** 
 2323              		.loc 1 642 7 discriminator 90 view .LVU577
 2324 0266 204B     		ldr	r3, .L272+12
 2325 0268 5A60     		str	r2, [r3, #4]
 2326 026a B2E7     		b	.L221
 2327              	.L257:
 642:Drivers/STM32F1xx_HAL_Driver/Src/stm32f1xx_hal_dma.c **** 
 2328              		.loc 1 642 7 view .LVU578
 2329 026c 2022     		movs	r2, #32
 2330 026e FAE7     		b	.L222
 2331              	.L258:
 2332 0270 4FF40072 		mov	r2, #512
 2333 0274 F7E7     		b	.L222
 2334              	.L259:
 2335 0276 4FF40052 		mov	r2, #8192
 2336 027a F4E7     		b	.L222
ARM GAS  C:\Users\HARTO_~1\AppData\Local\Temp\ccO3OpW0.s 			page 67


 2337              	.L260:
 2338 027c 4FF40032 		mov	r2, #131072
 2339 0280 F1E7     		b	.L222
 2340              	.L261:
 2341 0282 4FF40012 		mov	r2, #2097152
 2342 0286 EEE7     		b	.L222
 2343              	.L262:
 2344 0288 4FF00072 		mov	r2, #33554432
 2345 028c EBE7     		b	.L222
 2346              	.L263:
 2347 028e 0222     		movs	r2, #2
 2348 0290 E9E7     		b	.L222
 2349              	.L264:
 2350 0292 2022     		movs	r2, #32
 2351 0294 E7E7     		b	.L222
 2352              	.L265:
 2353 0296 4FF40072 		mov	r2, #512
 2354 029a E4E7     		b	.L222
 2355              	.LVL72:
 2356              	.L217:
 655:Drivers/STM32F1xx_HAL_Driver/Src/stm32f1xx_hal_dma.c ****   {
 2357              		.loc 1 655 8 is_stmt 1 view .LVU579
 655:Drivers/STM32F1xx_HAL_Driver/Src/stm32f1xx_hal_dma.c ****   {
 2358              		.loc 1 655 48 is_stmt 0 view .LVU580
 2359 029c 0823     		movs	r3, #8
 2360 029e 03FA01F1 		lsl	r1, r3, r1
 655:Drivers/STM32F1xx_HAL_Driver/Src/stm32f1xx_hal_dma.c ****   {
 2361              		.loc 1 655 11 view .LVU581
 2362 02a2 1142     		tst	r1, r2
 2363 02a4 3FF4F5AE 		beq	.L209
 655:Drivers/STM32F1xx_HAL_Driver/Src/stm32f1xx_hal_dma.c ****   {
 2364              		.loc 1 655 73 discriminator 1 view .LVU582
 2365 02a8 15F0080F 		tst	r5, #8
 2366 02ac 3FF4F1AE 		beq	.L209
 660:Drivers/STM32F1xx_HAL_Driver/Src/stm32f1xx_hal_dma.c **** 
 2367              		.loc 1 660 5 is_stmt 1 view .LVU583
 2368 02b0 2368     		ldr	r3, [r4]
 2369 02b2 23F00E03 		bic	r3, r3, #14
 2370 02b6 2360     		str	r3, [r4]
 663:Drivers/STM32F1xx_HAL_Driver/Src/stm32f1xx_hal_dma.c **** 
 2371              		.loc 1 663 5 view .LVU584
 663:Drivers/STM32F1xx_HAL_Driver/Src/stm32f1xx_hal_dma.c **** 
 2372              		.loc 1 663 55 is_stmt 0 view .LVU585
 2373 02b8 026C     		ldr	r2, [r0, #64]
 2374              	.LVL73:
 663:Drivers/STM32F1xx_HAL_Driver/Src/stm32f1xx_hal_dma.c **** 
 2375              		.loc 1 663 9 view .LVU586
 2376 02ba C16B     		ldr	r1, [r0, #60]
 663:Drivers/STM32F1xx_HAL_Driver/Src/stm32f1xx_hal_dma.c **** 
 2377              		.loc 1 663 48 view .LVU587
 2378 02bc 0123     		movs	r3, #1
 2379 02be 03FA02F2 		lsl	r2, r3, r2
 663:Drivers/STM32F1xx_HAL_Driver/Src/stm32f1xx_hal_dma.c **** 
 2380              		.loc 1 663 32 view .LVU588
 2381 02c2 4A60     		str	r2, [r1, #4]
 666:Drivers/STM32F1xx_HAL_Driver/Src/stm32f1xx_hal_dma.c **** 
 2382              		.loc 1 666 5 is_stmt 1 view .LVU589
ARM GAS  C:\Users\HARTO_~1\AppData\Local\Temp\ccO3OpW0.s 			page 68


 666:Drivers/STM32F1xx_HAL_Driver/Src/stm32f1xx_hal_dma.c **** 
 2383              		.loc 1 666 21 is_stmt 0 view .LVU590
 2384 02c4 8363     		str	r3, [r0, #56]
 669:Drivers/STM32F1xx_HAL_Driver/Src/stm32f1xx_hal_dma.c **** 
 2385              		.loc 1 669 5 is_stmt 1 view .LVU591
 669:Drivers/STM32F1xx_HAL_Driver/Src/stm32f1xx_hal_dma.c **** 
 2386              		.loc 1 669 17 is_stmt 0 view .LVU592
 2387 02c6 80F82130 		strb	r3, [r0, #33]
 672:Drivers/STM32F1xx_HAL_Driver/Src/stm32f1xx_hal_dma.c **** 
 2388              		.loc 1 672 5 is_stmt 1 view .LVU593
 672:Drivers/STM32F1xx_HAL_Driver/Src/stm32f1xx_hal_dma.c **** 
 2389              		.loc 1 672 5 view .LVU594
 2390 02ca 0023     		movs	r3, #0
 2391 02cc 80F82030 		strb	r3, [r0, #32]
 674:Drivers/STM32F1xx_HAL_Driver/Src/stm32f1xx_hal_dma.c ****     {
 2392              		.loc 1 674 5 view .LVU595
 674:Drivers/STM32F1xx_HAL_Driver/Src/stm32f1xx_hal_dma.c ****     {
 2393              		.loc 1 674 13 is_stmt 0 view .LVU596
 2394 02d0 036B     		ldr	r3, [r0, #48]
 674:Drivers/STM32F1xx_HAL_Driver/Src/stm32f1xx_hal_dma.c ****     {
 2395              		.loc 1 674 8 view .LVU597
 2396 02d2 002B     		cmp	r3, #0
 2397 02d4 3FF4DDAE 		beq	.L209
 677:Drivers/STM32F1xx_HAL_Driver/Src/stm32f1xx_hal_dma.c ****     }
 2398              		.loc 1 677 7 is_stmt 1 view .LVU598
 2399 02d8 9847     		blx	r3
 2400              	.LVL74:
 680:Drivers/STM32F1xx_HAL_Driver/Src/stm32f1xx_hal_dma.c **** }
 2401              		.loc 1 680 3 view .LVU599
 2402 02da DAE6     		b	.L209
 2403              	.L273:
 2404              		.align	2
 2405              	.L272:
 2406 02dc 80000240 		.word	1073873024
 2407 02e0 00040240 		.word	1073873920
 2408 02e4 08000240 		.word	1073872904
 2409 02e8 00000240 		.word	1073872896
 2410              		.cfi_endproc
 2411              	.LFE72:
 2413              		.section	.text.HAL_DMA_RegisterCallback,"ax",%progbits
 2414              		.align	1
 2415              		.global	HAL_DMA_RegisterCallback
 2416              		.syntax unified
 2417              		.thumb
 2418              		.thumb_func
 2419              		.fpu softvfp
 2421              	HAL_DMA_RegisterCallback:
 2422              	.LVL75:
 2423              	.LFB73:
 694:Drivers/STM32F1xx_HAL_Driver/Src/stm32f1xx_hal_dma.c ****   HAL_StatusTypeDef status = HAL_OK;
 2424              		.loc 1 694 1 view -0
 2425              		.cfi_startproc
 2426              		@ args = 0, pretend = 0, frame = 0
 2427              		@ frame_needed = 0, uses_anonymous_args = 0
 2428              		@ link register save eliminated.
 694:Drivers/STM32F1xx_HAL_Driver/Src/stm32f1xx_hal_dma.c ****   HAL_StatusTypeDef status = HAL_OK;
 2429              		.loc 1 694 1 is_stmt 0 view .LVU601
ARM GAS  C:\Users\HARTO_~1\AppData\Local\Temp\ccO3OpW0.s 			page 69


 2430 0000 0346     		mov	r3, r0
 695:Drivers/STM32F1xx_HAL_Driver/Src/stm32f1xx_hal_dma.c ****   
 2431              		.loc 1 695 3 is_stmt 1 view .LVU602
 2432              	.LVL76:
 698:Drivers/STM32F1xx_HAL_Driver/Src/stm32f1xx_hal_dma.c ****   
 2433              		.loc 1 698 3 view .LVU603
 698:Drivers/STM32F1xx_HAL_Driver/Src/stm32f1xx_hal_dma.c ****   
 2434              		.loc 1 698 3 view .LVU604
 2435 0002 90F82000 		ldrb	r0, [r0, #32]	@ zero_extendqisi2
 2436              	.LVL77:
 698:Drivers/STM32F1xx_HAL_Driver/Src/stm32f1xx_hal_dma.c ****   
 2437              		.loc 1 698 3 is_stmt 0 view .LVU605
 2438 0006 0128     		cmp	r0, #1
 2439 0008 1FD0     		beq	.L282
 698:Drivers/STM32F1xx_HAL_Driver/Src/stm32f1xx_hal_dma.c ****   
 2440              		.loc 1 698 3 is_stmt 1 discriminator 2 view .LVU606
 2441 000a 0120     		movs	r0, #1
 2442 000c 83F82000 		strb	r0, [r3, #32]
 700:Drivers/STM32F1xx_HAL_Driver/Src/stm32f1xx_hal_dma.c ****   {
 2443              		.loc 1 700 3 discriminator 2 view .LVU607
 700:Drivers/STM32F1xx_HAL_Driver/Src/stm32f1xx_hal_dma.c ****   {
 2444              		.loc 1 700 33 is_stmt 0 discriminator 2 view .LVU608
 2445 0010 93F82100 		ldrb	r0, [r3, #33]	@ zero_extendqisi2
 700:Drivers/STM32F1xx_HAL_Driver/Src/stm32f1xx_hal_dma.c ****   {
 2446              		.loc 1 700 5 discriminator 2 view .LVU609
 2447 0014 0128     		cmp	r0, #1
 2448 0016 04D0     		beq	.L285
 727:Drivers/STM32F1xx_HAL_Driver/Src/stm32f1xx_hal_dma.c ****   } 
 2449              		.loc 1 727 12 view .LVU610
 2450 0018 0120     		movs	r0, #1
 2451              	.L276:
 2452              	.LVL78:
 731:Drivers/STM32F1xx_HAL_Driver/Src/stm32f1xx_hal_dma.c ****   
 2453              		.loc 1 731 3 is_stmt 1 view .LVU611
 731:Drivers/STM32F1xx_HAL_Driver/Src/stm32f1xx_hal_dma.c ****   
 2454              		.loc 1 731 3 view .LVU612
 2455 001a 0022     		movs	r2, #0
 2456              	.LVL79:
 731:Drivers/STM32F1xx_HAL_Driver/Src/stm32f1xx_hal_dma.c ****   
 2457              		.loc 1 731 3 is_stmt 0 view .LVU613
 2458 001c 83F82020 		strb	r2, [r3, #32]
 733:Drivers/STM32F1xx_HAL_Driver/Src/stm32f1xx_hal_dma.c **** }
 2459              		.loc 1 733 3 is_stmt 1 view .LVU614
 733:Drivers/STM32F1xx_HAL_Driver/Src/stm32f1xx_hal_dma.c **** }
 2460              		.loc 1 733 10 is_stmt 0 view .LVU615
 2461 0020 7047     		bx	lr
 2462              	.LVL80:
 2463              	.L285:
 702:Drivers/STM32F1xx_HAL_Driver/Src/stm32f1xx_hal_dma.c ****     {
 2464              		.loc 1 702 5 is_stmt 1 view .LVU616
 2465 0022 0329     		cmp	r1, #3
 2466 0024 0FD8     		bhi	.L284
 2467 0026 DFE801F0 		tbb	[pc, r1]
 2468              	.L278:
 2469 002a 02       		.byte	(.L281-.L278)/2
 2470 002b 05       		.byte	(.L280-.L278)/2
 2471 002c 08       		.byte	(.L279-.L278)/2
ARM GAS  C:\Users\HARTO_~1\AppData\Local\Temp\ccO3OpW0.s 			page 70


 2472 002d 0B       		.byte	(.L277-.L278)/2
 2473              		.p2align 1
 2474              	.L281:
 705:Drivers/STM32F1xx_HAL_Driver/Src/stm32f1xx_hal_dma.c ****       break;
 2475              		.loc 1 705 7 view .LVU617
 705:Drivers/STM32F1xx_HAL_Driver/Src/stm32f1xx_hal_dma.c ****       break;
 2476              		.loc 1 705 30 is_stmt 0 view .LVU618
 2477 002e 9A62     		str	r2, [r3, #40]
 706:Drivers/STM32F1xx_HAL_Driver/Src/stm32f1xx_hal_dma.c ****       
 2478              		.loc 1 706 7 is_stmt 1 view .LVU619
 695:Drivers/STM32F1xx_HAL_Driver/Src/stm32f1xx_hal_dma.c ****   
 2479              		.loc 1 695 21 is_stmt 0 view .LVU620
 2480 0030 0020     		movs	r0, #0
 706:Drivers/STM32F1xx_HAL_Driver/Src/stm32f1xx_hal_dma.c ****       
 2481              		.loc 1 706 7 view .LVU621
 2482 0032 F2E7     		b	.L276
 2483              	.L280:
 709:Drivers/STM32F1xx_HAL_Driver/Src/stm32f1xx_hal_dma.c ****       break;         
 2484              		.loc 1 709 7 is_stmt 1 view .LVU622
 709:Drivers/STM32F1xx_HAL_Driver/Src/stm32f1xx_hal_dma.c ****       break;         
 2485              		.loc 1 709 34 is_stmt 0 view .LVU623
 2486 0034 DA62     		str	r2, [r3, #44]
 710:Drivers/STM32F1xx_HAL_Driver/Src/stm32f1xx_hal_dma.c **** 
 2487              		.loc 1 710 7 is_stmt 1 view .LVU624
 695:Drivers/STM32F1xx_HAL_Driver/Src/stm32f1xx_hal_dma.c ****   
 2488              		.loc 1 695 21 is_stmt 0 view .LVU625
 2489 0036 0020     		movs	r0, #0
 710:Drivers/STM32F1xx_HAL_Driver/Src/stm32f1xx_hal_dma.c **** 
 2490              		.loc 1 710 7 view .LVU626
 2491 0038 EFE7     		b	.L276
 2492              	.L279:
 713:Drivers/STM32F1xx_HAL_Driver/Src/stm32f1xx_hal_dma.c ****       break;         
 2493              		.loc 1 713 7 is_stmt 1 view .LVU627
 713:Drivers/STM32F1xx_HAL_Driver/Src/stm32f1xx_hal_dma.c ****       break;         
 2494              		.loc 1 713 31 is_stmt 0 view .LVU628
 2495 003a 1A63     		str	r2, [r3, #48]
 714:Drivers/STM32F1xx_HAL_Driver/Src/stm32f1xx_hal_dma.c ****       
 2496              		.loc 1 714 7 is_stmt 1 view .LVU629
 695:Drivers/STM32F1xx_HAL_Driver/Src/stm32f1xx_hal_dma.c ****   
 2497              		.loc 1 695 21 is_stmt 0 view .LVU630
 2498 003c 0020     		movs	r0, #0
 714:Drivers/STM32F1xx_HAL_Driver/Src/stm32f1xx_hal_dma.c ****       
 2499              		.loc 1 714 7 view .LVU631
 2500 003e ECE7     		b	.L276
 2501              	.L277:
 717:Drivers/STM32F1xx_HAL_Driver/Src/stm32f1xx_hal_dma.c ****       break; 
 2502              		.loc 1 717 7 is_stmt 1 view .LVU632
 717:Drivers/STM32F1xx_HAL_Driver/Src/stm32f1xx_hal_dma.c ****       break; 
 2503              		.loc 1 717 31 is_stmt 0 view .LVU633
 2504 0040 5A63     		str	r2, [r3, #52]
 718:Drivers/STM32F1xx_HAL_Driver/Src/stm32f1xx_hal_dma.c ****       
 2505              		.loc 1 718 7 is_stmt 1 view .LVU634
 695:Drivers/STM32F1xx_HAL_Driver/Src/stm32f1xx_hal_dma.c ****   
 2506              		.loc 1 695 21 is_stmt 0 view .LVU635
 2507 0042 0020     		movs	r0, #0
 718:Drivers/STM32F1xx_HAL_Driver/Src/stm32f1xx_hal_dma.c ****       
 2508              		.loc 1 718 7 view .LVU636
ARM GAS  C:\Users\HARTO_~1\AppData\Local\Temp\ccO3OpW0.s 			page 71


 2509 0044 E9E7     		b	.L276
 2510              	.L284:
 721:Drivers/STM32F1xx_HAL_Driver/Src/stm32f1xx_hal_dma.c ****       break;                                                            
 2511              		.loc 1 721 14 view .LVU637
 2512 0046 0120     		movs	r0, #1
 2513 0048 E7E7     		b	.L276
 2514              	.L282:
 698:Drivers/STM32F1xx_HAL_Driver/Src/stm32f1xx_hal_dma.c ****   
 2515              		.loc 1 698 3 view .LVU638
 2516 004a 0220     		movs	r0, #2
 734:Drivers/STM32F1xx_HAL_Driver/Src/stm32f1xx_hal_dma.c **** 
 2517              		.loc 1 734 1 view .LVU639
 2518 004c 7047     		bx	lr
 2519              		.cfi_endproc
 2520              	.LFE73:
 2522              		.section	.text.HAL_DMA_UnRegisterCallback,"ax",%progbits
 2523              		.align	1
 2524              		.global	HAL_DMA_UnRegisterCallback
 2525              		.syntax unified
 2526              		.thumb
 2527              		.thumb_func
 2528              		.fpu softvfp
 2530              	HAL_DMA_UnRegisterCallback:
 2531              	.LVL81:
 2532              	.LFB74:
 745:Drivers/STM32F1xx_HAL_Driver/Src/stm32f1xx_hal_dma.c ****   HAL_StatusTypeDef status = HAL_OK;
 2533              		.loc 1 745 1 is_stmt 1 view -0
 2534              		.cfi_startproc
 2535              		@ args = 0, pretend = 0, frame = 0
 2536              		@ frame_needed = 0, uses_anonymous_args = 0
 2537              		@ link register save eliminated.
 745:Drivers/STM32F1xx_HAL_Driver/Src/stm32f1xx_hal_dma.c ****   HAL_StatusTypeDef status = HAL_OK;
 2538              		.loc 1 745 1 is_stmt 0 view .LVU641
 2539 0000 0346     		mov	r3, r0
 746:Drivers/STM32F1xx_HAL_Driver/Src/stm32f1xx_hal_dma.c **** 
 2540              		.loc 1 746 3 is_stmt 1 view .LVU642
 2541              	.LVL82:
 749:Drivers/STM32F1xx_HAL_Driver/Src/stm32f1xx_hal_dma.c ****   
 2542              		.loc 1 749 3 view .LVU643
 749:Drivers/STM32F1xx_HAL_Driver/Src/stm32f1xx_hal_dma.c ****   
 2543              		.loc 1 749 3 view .LVU644
 2544 0002 90F82020 		ldrb	r2, [r0, #32]	@ zero_extendqisi2
 2545 0006 012A     		cmp	r2, #1
 2546 0008 26D0     		beq	.L295
 749:Drivers/STM32F1xx_HAL_Driver/Src/stm32f1xx_hal_dma.c ****   
 2547              		.loc 1 749 3 discriminator 2 view .LVU645
 2548 000a 0122     		movs	r2, #1
 2549 000c 80F82020 		strb	r2, [r0, #32]
 751:Drivers/STM32F1xx_HAL_Driver/Src/stm32f1xx_hal_dma.c ****   {
 2550              		.loc 1 751 3 discriminator 2 view .LVU646
 751:Drivers/STM32F1xx_HAL_Driver/Src/stm32f1xx_hal_dma.c ****   {
 2551              		.loc 1 751 33 is_stmt 0 discriminator 2 view .LVU647
 2552 0010 90F82120 		ldrb	r2, [r0, #33]	@ zero_extendqisi2
 751:Drivers/STM32F1xx_HAL_Driver/Src/stm32f1xx_hal_dma.c ****   {
 2553              		.loc 1 751 5 discriminator 2 view .LVU648
 2554 0014 012A     		cmp	r2, #1
 2555 0016 04D0     		beq	.L298
ARM GAS  C:\Users\HARTO_~1\AppData\Local\Temp\ccO3OpW0.s 			page 72


 785:Drivers/STM32F1xx_HAL_Driver/Src/stm32f1xx_hal_dma.c ****   } 
 2556              		.loc 1 785 12 view .LVU649
 2557 0018 0120     		movs	r0, #1
 2558              	.LVL83:
 2559              	.L288:
 789:Drivers/STM32F1xx_HAL_Driver/Src/stm32f1xx_hal_dma.c ****   
 2560              		.loc 1 789 3 is_stmt 1 view .LVU650
 789:Drivers/STM32F1xx_HAL_Driver/Src/stm32f1xx_hal_dma.c ****   
 2561              		.loc 1 789 3 view .LVU651
 2562 001a 0022     		movs	r2, #0
 2563 001c 83F82020 		strb	r2, [r3, #32]
 791:Drivers/STM32F1xx_HAL_Driver/Src/stm32f1xx_hal_dma.c **** }
 2564              		.loc 1 791 3 view .LVU652
 791:Drivers/STM32F1xx_HAL_Driver/Src/stm32f1xx_hal_dma.c **** }
 2565              		.loc 1 791 10 is_stmt 0 view .LVU653
 2566 0020 7047     		bx	lr
 2567              	.LVL84:
 2568              	.L298:
 753:Drivers/STM32F1xx_HAL_Driver/Src/stm32f1xx_hal_dma.c ****     {
 2569              		.loc 1 753 5 is_stmt 1 view .LVU654
 2570 0022 0429     		cmp	r1, #4
 2571 0024 16D8     		bhi	.L297
 2572 0026 DFE801F0 		tbb	[pc, r1]
 2573              	.L290:
 2574 002a 03       		.byte	(.L294-.L290)/2
 2575 002b 06       		.byte	(.L293-.L290)/2
 2576 002c 09       		.byte	(.L292-.L290)/2
 2577 002d 0C       		.byte	(.L291-.L290)/2
 2578 002e 0F       		.byte	(.L289-.L290)/2
 2579 002f 00       		.p2align 1
 2580              	.L294:
 756:Drivers/STM32F1xx_HAL_Driver/Src/stm32f1xx_hal_dma.c ****       break;
 2581              		.loc 1 756 7 view .LVU655
 756:Drivers/STM32F1xx_HAL_Driver/Src/stm32f1xx_hal_dma.c ****       break;
 2582              		.loc 1 756 30 is_stmt 0 view .LVU656
 2583 0030 0020     		movs	r0, #0
 2584              	.LVL85:
 756:Drivers/STM32F1xx_HAL_Driver/Src/stm32f1xx_hal_dma.c ****       break;
 2585              		.loc 1 756 30 view .LVU657
 2586 0032 9862     		str	r0, [r3, #40]
 757:Drivers/STM32F1xx_HAL_Driver/Src/stm32f1xx_hal_dma.c **** 
 2587              		.loc 1 757 7 is_stmt 1 view .LVU658
 2588 0034 F1E7     		b	.L288
 2589              	.LVL86:
 2590              	.L293:
 760:Drivers/STM32F1xx_HAL_Driver/Src/stm32f1xx_hal_dma.c ****       break;         
 2591              		.loc 1 760 7 view .LVU659
 760:Drivers/STM32F1xx_HAL_Driver/Src/stm32f1xx_hal_dma.c ****       break;         
 2592              		.loc 1 760 34 is_stmt 0 view .LVU660
 2593 0036 0020     		movs	r0, #0
 2594              	.LVL87:
 760:Drivers/STM32F1xx_HAL_Driver/Src/stm32f1xx_hal_dma.c ****       break;         
 2595              		.loc 1 760 34 view .LVU661
 2596 0038 D862     		str	r0, [r3, #44]
 761:Drivers/STM32F1xx_HAL_Driver/Src/stm32f1xx_hal_dma.c **** 
 2597              		.loc 1 761 7 is_stmt 1 view .LVU662
 2598 003a EEE7     		b	.L288
ARM GAS  C:\Users\HARTO_~1\AppData\Local\Temp\ccO3OpW0.s 			page 73


 2599              	.LVL88:
 2600              	.L292:
 764:Drivers/STM32F1xx_HAL_Driver/Src/stm32f1xx_hal_dma.c ****       break;         
 2601              		.loc 1 764 7 view .LVU663
 764:Drivers/STM32F1xx_HAL_Driver/Src/stm32f1xx_hal_dma.c ****       break;         
 2602              		.loc 1 764 31 is_stmt 0 view .LVU664
 2603 003c 0020     		movs	r0, #0
 2604              	.LVL89:
 764:Drivers/STM32F1xx_HAL_Driver/Src/stm32f1xx_hal_dma.c ****       break;         
 2605              		.loc 1 764 31 view .LVU665
 2606 003e 1863     		str	r0, [r3, #48]
 765:Drivers/STM32F1xx_HAL_Driver/Src/stm32f1xx_hal_dma.c **** 
 2607              		.loc 1 765 7 is_stmt 1 view .LVU666
 2608 0040 EBE7     		b	.L288
 2609              	.LVL90:
 2610              	.L291:
 768:Drivers/STM32F1xx_HAL_Driver/Src/stm32f1xx_hal_dma.c ****       break; 
 2611              		.loc 1 768 7 view .LVU667
 768:Drivers/STM32F1xx_HAL_Driver/Src/stm32f1xx_hal_dma.c ****       break; 
 2612              		.loc 1 768 31 is_stmt 0 view .LVU668
 2613 0042 0020     		movs	r0, #0
 2614              	.LVL91:
 768:Drivers/STM32F1xx_HAL_Driver/Src/stm32f1xx_hal_dma.c ****       break; 
 2615              		.loc 1 768 31 view .LVU669
 2616 0044 5863     		str	r0, [r3, #52]
 769:Drivers/STM32F1xx_HAL_Driver/Src/stm32f1xx_hal_dma.c **** 
 2617              		.loc 1 769 7 is_stmt 1 view .LVU670
 2618 0046 E8E7     		b	.L288
 2619              	.LVL92:
 2620              	.L289:
 772:Drivers/STM32F1xx_HAL_Driver/Src/stm32f1xx_hal_dma.c ****       hdma->XferHalfCpltCallback = NULL;
 2621              		.loc 1 772 7 view .LVU671
 772:Drivers/STM32F1xx_HAL_Driver/Src/stm32f1xx_hal_dma.c ****       hdma->XferHalfCpltCallback = NULL;
 2622              		.loc 1 772 30 is_stmt 0 view .LVU672
 2623 0048 0020     		movs	r0, #0
 2624              	.LVL93:
 772:Drivers/STM32F1xx_HAL_Driver/Src/stm32f1xx_hal_dma.c ****       hdma->XferHalfCpltCallback = NULL;
 2625              		.loc 1 772 30 view .LVU673
 2626 004a 9862     		str	r0, [r3, #40]
 773:Drivers/STM32F1xx_HAL_Driver/Src/stm32f1xx_hal_dma.c ****       hdma->XferErrorCallback = NULL;
 2627              		.loc 1 773 7 is_stmt 1 view .LVU674
 773:Drivers/STM32F1xx_HAL_Driver/Src/stm32f1xx_hal_dma.c ****       hdma->XferErrorCallback = NULL;
 2628              		.loc 1 773 34 is_stmt 0 view .LVU675
 2629 004c D862     		str	r0, [r3, #44]
 774:Drivers/STM32F1xx_HAL_Driver/Src/stm32f1xx_hal_dma.c ****       hdma->XferAbortCallback = NULL;
 2630              		.loc 1 774 7 is_stmt 1 view .LVU676
 774:Drivers/STM32F1xx_HAL_Driver/Src/stm32f1xx_hal_dma.c ****       hdma->XferAbortCallback = NULL;
 2631              		.loc 1 774 31 is_stmt 0 view .LVU677
 2632 004e 1863     		str	r0, [r3, #48]
 775:Drivers/STM32F1xx_HAL_Driver/Src/stm32f1xx_hal_dma.c ****       break; 
 2633              		.loc 1 775 7 is_stmt 1 view .LVU678
 775:Drivers/STM32F1xx_HAL_Driver/Src/stm32f1xx_hal_dma.c ****       break; 
 2634              		.loc 1 775 31 is_stmt 0 view .LVU679
 2635 0050 5863     		str	r0, [r3, #52]
 776:Drivers/STM32F1xx_HAL_Driver/Src/stm32f1xx_hal_dma.c **** 
 2636              		.loc 1 776 7 is_stmt 1 view .LVU680
 2637 0052 E2E7     		b	.L288
ARM GAS  C:\Users\HARTO_~1\AppData\Local\Temp\ccO3OpW0.s 			page 74


 2638              	.LVL94:
 2639              	.L297:
 779:Drivers/STM32F1xx_HAL_Driver/Src/stm32f1xx_hal_dma.c ****       break;
 2640              		.loc 1 779 14 is_stmt 0 view .LVU681
 2641 0054 0120     		movs	r0, #1
 2642              	.LVL95:
 779:Drivers/STM32F1xx_HAL_Driver/Src/stm32f1xx_hal_dma.c ****       break;
 2643              		.loc 1 779 14 view .LVU682
 2644 0056 E0E7     		b	.L288
 2645              	.LVL96:
 2646              	.L295:
 749:Drivers/STM32F1xx_HAL_Driver/Src/stm32f1xx_hal_dma.c ****   
 2647              		.loc 1 749 3 view .LVU683
 2648 0058 0220     		movs	r0, #2
 2649              	.LVL97:
 792:Drivers/STM32F1xx_HAL_Driver/Src/stm32f1xx_hal_dma.c ****   
 2650              		.loc 1 792 1 view .LVU684
 2651 005a 7047     		bx	lr
 2652              		.cfi_endproc
 2653              	.LFE74:
 2655              		.section	.text.HAL_DMA_GetState,"ax",%progbits
 2656              		.align	1
 2657              		.global	HAL_DMA_GetState
 2658              		.syntax unified
 2659              		.thumb
 2660              		.thumb_func
 2661              		.fpu softvfp
 2663              	HAL_DMA_GetState:
 2664              	.LVL98:
 2665              	.LFB75:
 821:Drivers/STM32F1xx_HAL_Driver/Src/stm32f1xx_hal_dma.c ****   /* Return DMA handle state */
 2666              		.loc 1 821 1 is_stmt 1 view -0
 2667              		.cfi_startproc
 2668              		@ args = 0, pretend = 0, frame = 0
 2669              		@ frame_needed = 0, uses_anonymous_args = 0
 2670              		@ link register save eliminated.
 823:Drivers/STM32F1xx_HAL_Driver/Src/stm32f1xx_hal_dma.c **** }
 2671              		.loc 1 823 3 view .LVU686
 824:Drivers/STM32F1xx_HAL_Driver/Src/stm32f1xx_hal_dma.c **** 
 2672              		.loc 1 824 1 is_stmt 0 view .LVU687
 2673 0000 90F82100 		ldrb	r0, [r0, #33]	@ zero_extendqisi2
 2674              	.LVL99:
 824:Drivers/STM32F1xx_HAL_Driver/Src/stm32f1xx_hal_dma.c **** 
 2675              		.loc 1 824 1 view .LVU688
 2676 0004 7047     		bx	lr
 2677              		.cfi_endproc
 2678              	.LFE75:
 2680              		.section	.text.HAL_DMA_GetError,"ax",%progbits
 2681              		.align	1
 2682              		.global	HAL_DMA_GetError
 2683              		.syntax unified
 2684              		.thumb
 2685              		.thumb_func
 2686              		.fpu softvfp
 2688              	HAL_DMA_GetError:
 2689              	.LVL100:
 2690              	.LFB76:
ARM GAS  C:\Users\HARTO_~1\AppData\Local\Temp\ccO3OpW0.s 			page 75


 833:Drivers/STM32F1xx_HAL_Driver/Src/stm32f1xx_hal_dma.c ****   return hdma->ErrorCode;
 2691              		.loc 1 833 1 is_stmt 1 view -0
 2692              		.cfi_startproc
 2693              		@ args = 0, pretend = 0, frame = 0
 2694              		@ frame_needed = 0, uses_anonymous_args = 0
 2695              		@ link register save eliminated.
 834:Drivers/STM32F1xx_HAL_Driver/Src/stm32f1xx_hal_dma.c **** }
 2696              		.loc 1 834 3 view .LVU690
 834:Drivers/STM32F1xx_HAL_Driver/Src/stm32f1xx_hal_dma.c **** }
 2697              		.loc 1 834 14 is_stmt 0 view .LVU691
 2698 0000 806B     		ldr	r0, [r0, #56]
 2699              	.LVL101:
 835:Drivers/STM32F1xx_HAL_Driver/Src/stm32f1xx_hal_dma.c **** 
 2700              		.loc 1 835 1 view .LVU692
 2701 0002 7047     		bx	lr
 2702              		.cfi_endproc
 2703              	.LFE76:
 2705              		.text
 2706              	.Letext0:
 2707              		.file 2 "c:\\software\\embeddedgcc\\arm_gcc\\arm-none-eabi\\include\\machine\\_default_types.h"
 2708              		.file 3 "c:\\software\\embeddedgcc\\arm_gcc\\arm-none-eabi\\include\\sys\\_stdint.h"
 2709              		.file 4 "Drivers/CMSIS/Include/core_cm3.h"
 2710              		.file 5 "Drivers/CMSIS/Device/ST/STM32F1xx/Include/system_stm32f1xx.h"
 2711              		.file 6 "Drivers/CMSIS/Device/ST/STM32F1xx/Include/stm32f105xc.h"
 2712              		.file 7 "Drivers/CMSIS/Device/ST/STM32F1xx/Include/stm32f1xx.h"
 2713              		.file 8 "Drivers/STM32F1xx_HAL_Driver/Inc/stm32f1xx_hal_def.h"
 2714              		.file 9 "Drivers/STM32F1xx_HAL_Driver/Inc/stm32f1xx_hal_dma.h"
 2715              		.file 10 "Drivers/STM32F1xx_HAL_Driver/Inc/stm32f1xx_hal.h"
ARM GAS  C:\Users\HARTO_~1\AppData\Local\Temp\ccO3OpW0.s 			page 76

